
skeleton.elf:     file format elf32-littlenios2
skeleton.elf
architecture: nios2:r1, flags 0x00000112:
EXEC_P, HAS_SYMS, D_PAGED
start address 0x000401bc

Program Header:
    LOAD off    0x00001000 vaddr 0x00040000 paddr 0x00040000 align 2**12
         filesz 0x00000020 memsz 0x00000020 flags r-x
    LOAD off    0x00001020 vaddr 0x00040020 paddr 0x00040020 align 2**12
         filesz 0x00014d24 memsz 0x00014d24 flags r-x
    LOAD off    0x00015d44 vaddr 0x00054d44 paddr 0x000569b4 align 2**12
         filesz 0x00001c70 memsz 0x00001c70 flags rw-
    LOAD off    0x00018624 vaddr 0x00058624 paddr 0x00058624 align 2**12
         filesz 0x00000000 memsz 0x000017fc flags rw-

Sections:
Idx Name          Size      VMA       LMA       File off  Algn
  0 .entry        00000020  00040000  00040000  00001000  2**5
                  CONTENTS, ALLOC, LOAD, READONLY, CODE
  1 .exceptions   0000019c  00040020  00040020  00001020  2**2
                  CONTENTS, ALLOC, LOAD, READONLY, CODE
  2 .text         0001467c  000401bc  000401bc  000011bc  2**2
                  CONTENTS, ALLOC, LOAD, READONLY, CODE
  3 .rodata       0000050c  00054838  00054838  00015838  2**2
                  CONTENTS, ALLOC, LOAD, READONLY, DATA
  4 .rwdata       00001c70  00054d44  000569b4  00015d44  2**2
                  CONTENTS, ALLOC, LOAD, DATA, SMALL_DATA
  5 .bss          000017fc  00058624  00058624  00018624  2**2
                  ALLOC, SMALL_DATA
  6 .onchip_memory2 00000000  00059e20  00059e20  000179b4  2**0
                  CONTENTS
  7 .comment      00000049  00000000  00000000  000179b4  2**0
                  CONTENTS, READONLY
  8 .debug_aranges 000010c0  00000000  00000000  00017a00  2**3
                  CONTENTS, READONLY, DEBUGGING
  9 .debug_pubnames 0000001c  00000000  00000000  00018ac0  2**0
                  CONTENTS, READONLY, DEBUGGING
 10 .debug_info   000247e5  00000000  00000000  00018adc  2**0
                  CONTENTS, READONLY, DEBUGGING
 11 .debug_abbrev 00009e21  00000000  00000000  0003d2c1  2**0
                  CONTENTS, READONLY, DEBUGGING
 12 .debug_line   0000cc0b  00000000  00000000  000470e2  2**0
                  CONTENTS, READONLY, DEBUGGING
 13 .debug_frame  00002e98  00000000  00000000  00053cf0  2**2
                  CONTENTS, READONLY, DEBUGGING
 14 .debug_str    00003d2a  00000000  00000000  00056b88  2**0
                  CONTENTS, READONLY, DEBUGGING
 15 .debug_loc    00019e2f  00000000  00000000  0005a8b2  2**0
                  CONTENTS, READONLY, DEBUGGING
 16 .debug_alt_sim_info 00000030  00000000  00000000  000746e4  2**2
                  CONTENTS, READONLY, DEBUGGING
 17 .debug_ranges 00001a20  00000000  00000000  00074718  2**3
                  CONTENTS, READONLY, DEBUGGING
 18 .thread_model 00000003  00000000  00000000  0007a3a9  2**0
                  CONTENTS, READONLY
 19 .cpu          0000000a  00000000  00000000  0007a3ac  2**0
                  CONTENTS, READONLY
 20 .qsys         00000001  00000000  00000000  0007a3b6  2**0
                  CONTENTS, READONLY
 21 .simulation_enabled 00000001  00000000  00000000  0007a3b7  2**0
                  CONTENTS, READONLY
 22 .sysid_hash   00000004  00000000  00000000  0007a3b8  2**0
                  CONTENTS, READONLY
 23 .sysid_base   00000004  00000000  00000000  0007a3bc  2**0
                  CONTENTS, READONLY
 24 .sysid_time   00000004  00000000  00000000  0007a3c0  2**0
                  CONTENTS, READONLY
 25 .stderr_dev   00000009  00000000  00000000  0007a3c4  2**0
                  CONTENTS, READONLY
 26 .stdin_dev    00000009  00000000  00000000  0007a3cd  2**0
                  CONTENTS, READONLY
 27 .stdout_dev   00000009  00000000  00000000  0007a3d6  2**0
                  CONTENTS, READONLY
 28 .sopc_system_name 00000008  00000000  00000000  0007a3df  2**0
                  CONTENTS, READONLY
 29 .quartus_project_dir 0000000f  00000000  00000000  0007a3e7  2**0
                  CONTENTS, READONLY
 30 .jdi          00004b68  00000000  00000000  0007a3f6  2**0
                  CONTENTS, READONLY
 31 .sopcinfo     00119e53  00000000  00000000  0007ef5e  2**0
                  CONTENTS, READONLY
SYMBOL TABLE:
00040000 l    d  .entry	00000000 .entry
00040020 l    d  .exceptions	00000000 .exceptions
000401bc l    d  .text	00000000 .text
00054838 l    d  .rodata	00000000 .rodata
00054d44 l    d  .rwdata	00000000 .rwdata
00058624 l    d  .bss	00000000 .bss
00059e20 l    d  .onchip_memory2	00000000 .onchip_memory2
00000000 l    d  .comment	00000000 .comment
00000000 l    d  .debug_aranges	00000000 .debug_aranges
00000000 l    d  .debug_pubnames	00000000 .debug_pubnames
00000000 l    d  .debug_info	00000000 .debug_info
00000000 l    d  .debug_abbrev	00000000 .debug_abbrev
00000000 l    d  .debug_line	00000000 .debug_line
00000000 l    d  .debug_frame	00000000 .debug_frame
00000000 l    d  .debug_str	00000000 .debug_str
00000000 l    d  .debug_loc	00000000 .debug_loc
00000000 l    d  .debug_alt_sim_info	00000000 .debug_alt_sim_info
00000000 l    d  .debug_ranges	00000000 .debug_ranges
00000000 l    df *ABS*	00000000 ../skeleton_bsp//obj/HAL/src/crt0.o
00040204 l       .text	00000000 alt_after_alt_main
00000000 l    df *ABS*	00000000 alt_exception_entry.o
00040094 l       .exceptions	00000000 alt_exception_unknown
00000000 l    df *ABS*	00000000 alt_irq_handler.c
00000000 l    df *ABS*	00000000 aic23.c
00054d70 l     O .rwdata	0000002c aic23_default_config
00000000 l    df *ABS*	00000000 delay.c
00000000 l    df *ABS*	00000000 i2s_control.c
00000000 l    df *ABS*	00000000 main.c
00041b54 l     F .text	00000050 handle_switch0_interrupt
00041ba4 l     F .text	00000050 handle_switch1_interrupt
00041bf4 l     F .text	00000148 handle_key0_interrupt
00041d3c l     F .text	00000058 handle_key1_interrupt
00041d94 l     F .text	00000050 handle_key2_interrupt
00041de4 l     F .text	00000060 handle_key3_interrupt
00041eb4 l     F .text	000000bc handle_leftready_interrupt_test
00041f70 l     F .text	000000b0 handle_rightready_interrupt_test
00000000 l    df *ABS*	00000000 spi_control.c
00000000 l    df *ABS*	00000000 uart.c
00000000 l    df *ABS*	00000000 s_sin.c
00000000 l    df *ABS*	00000000 e_rem_pio2.c
000548e8 l     O .rodata	00000108 two_over_pi
00054868 l     O .rodata	00000080 npio2_hw
00000000 l    df *ABS*	00000000 k_cos.c
00000000 l    df *ABS*	00000000 k_rem_pio2.c
00054a30 l     O .rodata	00000010 init_jk
000549f0 l     O .rodata	00000040 PIo2
00000000 l    df *ABS*	00000000 k_sin.c
00000000 l    df *ABS*	00000000 s_fabs.c
00000000 l    df *ABS*	00000000 s_floor.c
00000000 l    df *ABS*	00000000 s_scalbn.c
00000000 l    df *ABS*	00000000 s_copysign.c
00000000 l    df *ABS*	00000000 lib2-divmod.c
00044a94 l     F .text	0000006c udivmodsi4
00000000 l    df *ABS*	00000000 addsf3.c
00000000 l    df *ABS*	00000000 mulsf3.c
00000000 l    df *ABS*	00000000 subsf3.c
00000000 l    df *ABS*	00000000 fixsfsi.c
00000000 l    df *ABS*	00000000 adddf3.c
00000000 l    df *ABS*	00000000 divdf3.c
00000000 l    df *ABS*	00000000 eqdf2.c
00000000 l    df *ABS*	00000000 gedf2.c
00000000 l    df *ABS*	00000000 muldf3.c
00000000 l    df *ABS*	00000000 subdf3.c
00000000 l    df *ABS*	00000000 fixdfsi.c
00000000 l    df *ABS*	00000000 floatsidf.c
00000000 l    df *ABS*	00000000 extendsfdf2.c
00000000 l    df *ABS*	00000000 libgcc2.c
00000000 l    df *ABS*	00000000 libgcc2.c
00000000 l    df *ABS*	00000000 puts.c
00000000 l    df *ABS*	00000000 snprintf.c
00000000 l    df *ABS*	00000000 strlen.c
00000000 l    df *ABS*	00000000 vfprintf.c
00054b86 l     O .rodata	00000010 zeroes.4240
00054b96 l     O .rodata	00000010 blanks.4239
00000000 l    df *ABS*	00000000 dtoa.c
0004a264 l     F .text	00000200 quorem
00000000 l    df *ABS*	00000000 fvwrite.c
00000000 l    df *ABS*	00000000 impure.c
00054dd8 l     O .rwdata	00000424 impure_data
00000000 l    df *ABS*	00000000 locale.c
0005521c l     O .rwdata	00000020 lc_ctype_charset
000551fc l     O .rwdata	00000020 lc_message_charset
0005523c l     O .rwdata	00000038 lconv
00000000 l    df *ABS*	00000000 mallocr.c
00000000 l    df *ABS*	00000000 memchr.c
00000000 l    df *ABS*	00000000 memcpy.c
00000000 l    df *ABS*	00000000 memmove.c
00000000 l    df *ABS*	00000000 mprec.c
00054bc8 l     O .rodata	0000000c p05.2710
00000000 l    df *ABS*	00000000 mallocr.c
00000000 l    df *ABS*	00000000 s_fpclassify.c
00000000 l    df *ABS*	00000000 sbrkr.c
00000000 l    df *ABS*	00000000 strcmp.c
00000000 l    df *ABS*	00000000 vfprintf.c
00054cec l     O .rodata	00000010 zeroes.4184
00054cfc l     O .rodata	00000010 blanks.4183
00000000 l    df *ABS*	00000000 wsetup.c
00000000 l    df *ABS*	00000000 mallocr.c
00000000 l    df *ABS*	00000000 fflush.c
00000000 l    df *ABS*	00000000 findfp.c
0004f974 l     F .text	00000008 __fp_lock
0004f97c l     F .text	00000008 __fp_unlock
0004f990 l     F .text	0000019c __sinit.part.1
00000000 l    df *ABS*	00000000 mallocr.c
00000000 l    df *ABS*	00000000 fwalk.c
00000000 l    df *ABS*	00000000 int_errno.c
00000000 l    df *ABS*	00000000 makebuf.c
00000000 l    df *ABS*	00000000 memset.c
00000000 l    df *ABS*	00000000 stdio.c
00000000 l    df *ABS*	00000000 writer.c
00000000 l    df *ABS*	00000000 closer.c
00000000 l    df *ABS*	00000000 fclose.c
00000000 l    df *ABS*	00000000 fstatr.c
00000000 l    df *ABS*	00000000 isattyr.c
00000000 l    df *ABS*	00000000 lseekr.c
00000000 l    df *ABS*	00000000 readr.c
00000000 l    df *ABS*	00000000 libgcc2.c
00000000 l    df *ABS*	00000000 libgcc2.c
00000000 l    df *ABS*	00000000 ledf2.c
00000000 l    df *ABS*	00000000 floatunsidf.c
00000000 l    df *ABS*	00000000 alt_close.c
000516b4 l     F .text	00000050 alt_get_errno
00000000 l    df *ABS*	00000000 alt_dev.c
000517d4 l     F .text	0000002c alt_dev_null_write
00000000 l    df *ABS*	00000000 alt_errno.c
00000000 l    df *ABS*	00000000 alt_fstat.c
00051800 l     F .text	00000050 alt_get_errno
00000000 l    df *ABS*	00000000 alt_irq_register.c
00000000 l    df *ABS*	00000000 alt_irq_vars.c
00000000 l    df *ABS*	00000000 alt_isatty.c
00051ab0 l     F .text	00000050 alt_get_errno
00000000 l    df *ABS*	00000000 alt_load.c
00051ba4 l     F .text	00000064 alt_load_section
00000000 l    df *ABS*	00000000 alt_lseek.c
00051c88 l     F .text	00000050 alt_get_errno
00000000 l    df *ABS*	00000000 alt_main.c
00000000 l    df *ABS*	00000000 alt_malloc_lock.c
00000000 l    df *ABS*	00000000 alt_open.c
00051e64 l     F .text	00000050 alt_get_errno
00051eb4 l     F .text	000000cc alt_file_locked
00000000 l    df *ABS*	00000000 alt_read.c
000520d8 l     F .text	00000050 alt_get_errno
00000000 l    df *ABS*	00000000 alt_release_fd.c
00000000 l    df *ABS*	00000000 alt_sbrk.c
000569a8 l     O .rwdata	00000004 heap_end
00000000 l    df *ABS*	00000000 alt_write.c
00052334 l     F .text	00000050 alt_get_errno
00000000 l    df *ABS*	00000000 alt_sys_init.c
0005247c l     F .text	00000038 alt_dev_reg
00055824 l     O .rwdata	00001060 jtag_uart
00056884 l     O .rwdata	000000c4 uart
00000000 l    df *ABS*	00000000 altera_avalon_jtag_uart_fd.c
00000000 l    df *ABS*	00000000 altera_avalon_jtag_uart_init.c
00052778 l     F .text	00000204 altera_avalon_jtag_uart_irq
0005297c l     F .text	000000a8 altera_avalon_jtag_uart_timeout
00000000 l    df *ABS*	00000000 altera_avalon_jtag_uart_ioctl.c
00000000 l    df *ABS*	00000000 altera_avalon_jtag_uart_read.c
00000000 l    df *ABS*	00000000 altera_avalon_jtag_uart_write.c
00000000 l    df *ABS*	00000000 altera_avalon_uart_fd.c
00000000 l    df *ABS*	00000000 altera_avalon_uart_init.c
00053154 l     F .text	00000098 altera_avalon_uart_irq
000531ec l     F .text	000000e0 altera_avalon_uart_rxirq
000532cc l     F .text	00000144 altera_avalon_uart_txirq
00000000 l    df *ABS*	00000000 altera_avalon_uart_read.c
00053464 l     F .text	00000050 alt_get_errno
00000000 l    df *ABS*	00000000 altera_avalon_uart_write.c
00053690 l     F .text	00000050 alt_get_errno
00000000 l    df *ABS*	00000000 alt_alarm_start.c
00000000 l    df *ABS*	00000000 alt_dcache_flush_all.c
00000000 l    df *ABS*	00000000 alt_dev_llist_insert.c
00053a10 l     F .text	00000050 alt_get_errno
00000000 l    df *ABS*	00000000 alt_do_ctors.c
00000000 l    df *ABS*	00000000 alt_do_dtors.c
00000000 l    df *ABS*	00000000 alt_find_dev.c
00000000 l    df *ABS*	00000000 alt_find_file.c
00000000 l    df *ABS*	00000000 alt_get_fd.c
00000000 l    df *ABS*	00000000 alt_icache_flush_all.c
00000000 l    df *ABS*	00000000 alt_iic.c
00000000 l    df *ABS*	00000000 alt_iic_isr_register.c
00000000 l    df *ABS*	00000000 alt_io_redirect.c
00054114 l     F .text	000000c0 alt_open_fd
00000000 l    df *ABS*	00000000 alt_tick.c
00000000 l    df *ABS*	00000000 altera_nios2_qsys_irq.c
00000000 l    df *ABS*	00000000 alt_icache_flush.c
00000000 l    df *ABS*	00000000 atexit.c
00000000 l    df *ABS*	00000000 exit.c
00000000 l    df *ABS*	00000000 memcmp.c
00000000 l    df *ABS*	00000000 __atexit.c
00000000 l    df *ABS*	00000000 __call_atexit.c
00000000 l    df *ABS*	00000000 alt_exit.c
0004da78 g     F .text	00000074 _mprec_log10
0004db64 g     F .text	0000008c __any_on
000508d4 g     F .text	00000054 _isatty_r
00054bd4 g     O .rodata	00000028 __mprec_tinytens
00051dac g     F .text	00000078 alt_main
00040f9c g     F .text	00000068 AIC23_format
00040c80 g     F .text	0000006c AIC23_deemp
00047fc4 g     F .text	000000a8 _puts_r
00059d20 g     O .bss	00000100 alt_irq
000446a4 g     F .text	00000014 fabs
00050928 g     F .text	0000005c _lseek_r
00040a60 g     F .text	0000006c AIC23_bypass
000569b4 g       *ABS*	00000000 __flash_rwdata_start
00046ba0 g     F .text	00000084 .hidden __eqdf2
00054d9c g     O .rwdata	00000028 aic23_demo
00059e20 g       *ABS*	00000000 __alt_heap_start
00056954 g     O .rwdata	00000004 key1_id
0005694c g     O .rwdata	00000004 switch1_id
00050664 g     F .text	0000005c __sseek
0004fcc4 g     F .text	00000010 __sinit
0004c04c g     F .text	0000007c _setlocale_r
0004fb2c g     F .text	00000068 __sfmoreglue
00051e44 g     F .text	00000020 __malloc_unlock
0004249c g     F .text	00000180 spi_send
000586dc g     O .bss	00000200 datatest
000405f4 g     F .text	00000068 AIC23_line_rim
000588dc g     O .bss	00000036 leftChannelData
00058670 g     O .bss	00000004 setFreqFlag
0004caf4 g     F .text	0000015c memmove
00041e44 g     F .text	00000030 unsigned2signed
0004fcac g     F .text	00000018 _cleanup
00048158 g     F .text	000000e4 snprintf
000403dc g     F .text	0000003c AIC_setFreq
0004cc50 g     F .text	000000a8 _Balloc
000459c0 g     F .text	00000078 .hidden __fixsfsi
00040208 g     F .text	000000ac AIC23_init
00046c24 g     F .text	000000e0 .hidden __gtdf2
00000000  w      *UND*	00000000 __errno
00040000 g     F .entry	0000001c __reset
00040988 g     F .text	0000006c AIC23_sidetone_add
00040020 g       *ABS*	00000000 __flash_exceptions_start
0005087c g     F .text	00000058 _fstat_r
00058698 g     O .bss	00000004 errno
000446b8 g     F .text	000001f4 floor
000505e0 g     F .text	00000008 __seofread
0004e490 g     F .text	00001038 ___svfiprintf_internal_r
00042670 g     F .text	00000074 uart_sendInt16
000586a4 g     O .bss	00000004 alt_argv
0005e948 g       *ABS*	00000000 _gp
00041004 g     F .text	0000006c AIC23_clkin
000454c4 g     F .text	000004fc .hidden __subsf3
000402b4 g     F .text	00000030 AIC23_reset
00058674 g     O .bss	00000002 loop
000556a4 g     O .rwdata	00000180 alt_fd_list
00040458 g     F .text	00000068 AIC23_line_lrs
000411b8 g     F .text	00000068 AIC23_clk_mode
00042a74 g     F .text	0000079c __ieee754_rem_pio2
00053bbc g     F .text	00000090 alt_find_dev
0004c9bc g     F .text	00000138 memcpy
00040790 g     F .text	00000064 AIC23_head_lhv
0004f984 g     F .text	0000000c _cleanup_r
00047d80 g     F .text	000000d0 .hidden __floatsidf
000541d4 g     F .text	00000078 alt_io_redirect
00051530 g     F .text	000000e0 .hidden __ltdf2
00054838 g       *ABS*	00000000 __DTOR_END__
0004806c g     F .text	00000014 puts
0004e158 g     F .text	00000074 __fpclassifyd
0004d9d4 g     F .text	000000a4 __ratio
000404c0 g     F .text	00000068 AIC23_line_lim
00052b78 g     F .text	0000020c altera_avalon_jtag_uart_read
00000000  w      *UND*	00000000 malloc
00044bb0 g     F .text	00000008 .hidden __udivsi3
00051b00 g     F .text	000000a4 isatty
000407f4 g     F .text	00000068 AIC23_head_rls
00054c24 g     O .rodata	000000c8 __mprec_tens
0004c0c8 g     F .text	0000000c __locale_charset
00043210 g     F .text	000004a4 __kernel_cos
00054408 g     F .text	0000008c alt_icache_flush
00058694 g     O .bss	00000004 __malloc_top_pad
00056980 g     O .rwdata	00000004 __mb_cur_max
0004c0f8 g     F .text	0000000c _localeconv_r
0004d05c g     F .text	0000003c __i2b
0004bb8c g     F .text	000004c0 __sfvwrite_r
0004e1cc g     F .text	00000054 _sbrk_r
000410dc g     F .text	00000070 AIC23_setFreq
00050984 g     F .text	0000005c _read_r
00056958 g     O .rwdata	00000004 key2_id
0005699c g     O .rwdata	00000004 alt_max_fd
00050778 g     F .text	000000f0 _fclose_r
0004f944 g     F .text	00000030 fflush
00058690 g     O .bss	00000004 __malloc_max_sbrked_mem
00051900 g     F .text	000001b0 alt_irq_register
00056964 g     O .rwdata	00000004 rightready_id
000443dc g     F .text	000002c8 __kernel_sin
00047e50 g     F .text	00000110 .hidden __extendsfdf2
00041e74 g     F .text	00000040 signed2unsigned
00040528 g     F .text	00000064 AIC23_line_liv
00045a38 g     F .text	0000089c .hidden __adddf3
0005696c g     O .rwdata	00000004 sampleFrequency
0004d77c g     F .text	0000011c __b2d
0005864c g     O .bss	00000004 convIndex
00059cea g     O .bss	00000036 DataBufferCopy
00050fa0 g     F .text	00000590 .hidden __umoddi3
00051cd8 g     F .text	000000d4 lseek
00056978 g     O .rwdata	00000004 _global_impure_ptr
0004dbf0 g     F .text	00000568 _realloc_r
00059e20 g       *ABS*	00000000 __bss_end
00054024 g     F .text	000000f0 alt_iic_isr_register
000542e4 g     F .text	00000104 alt_tick
000414bc g     F .text	000000e4 I2S_send_left
000509e0 g     F .text	000005c0 .hidden __udivdi3
00054bfc g     O .rodata	00000028 __mprec_bigtens
0004ce40 g     F .text	00000104 __s2b
00051610 g     F .text	000000a4 .hidden __floatunsidf
0004d524 g     F .text	00000060 __mcmp
000530ac g     F .text	000000a8 altera_avalon_uart_init
00041220 g     F .text	00000030 AIC23_on
0004fce4 g     F .text	00000018 __fp_lock_all
00053fd8 g     F .text	0000004c alt_ic_irq_enabled
00040b3c g     F .text	00000070 AIC23_mic_mute
0005424c g     F .text	00000098 alt_alarm_stop
0005869c g     O .bss	00000004 alt_irq_active
000413cc g     F .text	000000f0 I2S_collect_right
000400ec g     F .exceptions	000000d0 alt_irq_handler
0005567c g     O .rwdata	00000028 alt_dev_null
000436b4 g     F .text	00000d28 __kernel_rem_pio2
000539cc g     F .text	00000044 alt_dcache_flush_all
0004cf44 g     F .text	00000068 __hi0bits
00047cf8 g     F .text	00000088 .hidden __fixdfsi
000569b4 g       *ABS*	00000000 __ram_rwdata_end
00056994 g     O .rwdata	00000008 alt_dev_list
00052384 g     F .text	000000f8 write
00058912 g     O .bss	00000400 rx_buffer
0004065c g     F .text	00000064 AIC23_line_riv
0004114c g     F .text	0000006c AIC23_bosr
00054d44 g       *ABS*	00000000 __ram_rodata_end
00051850 g     F .text	000000b0 fstat
00051530 g     F .text	000000e0 .hidden __ledf2
000412d4 g     F .text	000000f8 I2S_collect_left
0004d294 g     F .text	00000140 __pow5mult
00058688 g     O .bss	00000004 __nlocale_changed
00044bb8 g     F .text	00000008 .hidden __umodsi3
00040cec g     F .text	00000068 AIC23_adc_highpass
00059e20 g       *ABS*	00000000 end
000415a0 g     F .text	000000e4 I2S_send_right
00058660 g     O .bss	00000004 leftBufferFull
000536e0 g     F .text	000001ac altera_avalon_uart_write
0005862c g     O .bss	00000004 key0
00058630 g     O .bss	00000004 key1
000526b4 g     F .text	000000c4 altera_avalon_jtag_uart_init
00042834 g     F .text	000000ac uart_SendTestBuff
00054838 g       *ABS*	00000000 __CTOR_LIST__
00072000 g       *ABS*	00000000 __alt_stack_pointer
00052ffc g     F .text	00000060 altera_avalon_uart_write_fd
00047f60 g     F .text	00000064 .hidden __clzsi2
00048080 g     F .text	000000d8 _snprintf_r
0005305c g     F .text	00000050 altera_avalon_uart_close_fd
00052d84 g     F .text	00000218 altera_avalon_jtag_uart_write
0004fcd4 g     F .text	00000004 __sfp_lock_acquire
0004c8d4 g     F .text	000000e8 memchr
0004fe38 g     F .text	000002f0 _free_r
0004c0d4 g     F .text	00000010 __locale_mb_cur_max
00054670 g     F .text	00000194 __call_exitprocs
00058d14 g     O .bss	00000fa0 convResultBuffer
00040e54 g     F .text	0000006c AIC23_lr_swap
00040de8 g     F .text	0000006c AIC23_mode
00058684 g     O .bss	00000004 __mlocale_changed
00040334 g     F .text	000000a8 AIC23_demo
00056984 g     O .rwdata	00000004 __malloc_sbrk_base
000401bc g     F .text	0000004c _start
00058654 g     O .bss	00000004 leftCount
000586ac g     O .bss	00000004 _alt_tick_rate
00042984 g     F .text	000000f0 sin
0004d3d4 g     F .text	00000150 __lshift
000586b0 g     O .bss	00000004 _alt_nticks
00052128 g     F .text	000000fc read
000524e8 g     F .text	00000068 alt_sys_init
0004e2c4 g     F .text	000001cc __ssprint_r
00040d9c g     F .text	0000004c AIC23_power_off
0005455c g     F .text	00000114 __register_exitproc
0004d098 g     F .text	000001fc __multiply
00052a24 g     F .text	00000068 altera_avalon_jtag_uart_close
00054d44 g       *ABS*	00000000 __ram_rwdata_start
00054838 g       *ABS*	00000000 __ram_rodata_start
000586b4 g     O .bss	00000028 __malloc_current_mallinfo
00058668 g     O .bss	00000004 uartStartRecvFlag
0004d898 g     F .text	0000013c __d2b
00058658 g     O .bss	00000004 lefttestCount
00041070 g     F .text	0000006c AIC23_clkout
00040acc g     F .text	00000070 AIC23_input
00052550 g     F .text	00000060 altera_avalon_jtag_uart_read_fd
000428e0 g     F .text	000000a4 uart_SendConvBuff
00053d60 g     F .text	000000b4 alt_get_fd
00042020 g     F .text	00000254 system_initialization
00050724 g     F .text	00000054 _close_r
00041250 g     F .text	00000030 AIC23_off
00056950 g     O .rwdata	00000004 key0_id
000544e0 g     F .text	0000007c memcmp
00052610 g     F .text	00000050 altera_avalon_jtag_uart_close_fd
00059e20 g       *ABS*	00000000 __alt_stack_base
00052660 g     F .text	00000054 altera_avalon_jtag_uart_ioctl_fd
00040bac g     F .text	00000068 AIC23_mic_boost
00040ec0 g     F .text	0000006c AIC23_lr_phase
0004f4c8 g     F .text	00000154 __swsetup_r
0005863c g     O .bss	00000004 leftready
000462d4 g     F .text	000008cc .hidden __divdf3
0004fb94 g     F .text	00000118 __sfp
00058664 g     O .bss	00000004 uartStartSendFlag
0004daec g     F .text	00000078 __copybits
00055274 g     O .rwdata	00000408 __malloc_av_
0004fce0 g     F .text	00000004 __sinit_lock_release
00046d04 g     F .text	00000724 .hidden __muldf3
0005058c g     F .text	00000054 __sread
0005867c g     O .bss	00000004 counter
00053c4c g     F .text	00000114 alt_find_file
00053a60 g     F .text	000000a4 alt_dev_llist_insert
00051e24 g     F .text	00000020 __malloc_lock
00052284 g     F .text	000000b0 sbrk
000482d4 g     F .text	00001f90 ___svfprintf_internal_r
0004085c g     F .text	0000006c AIC23_head_rzc
0004f8e8 g     F .text	0000005c _fflush_r
0004f61c g     F .text	000000c4 _calloc_r
00058624 g       *ABS*	00000000 __bss_start
00050468 g     F .text	00000124 memset
00056968 g     O .rwdata	00000004 uart_id
00042274 g     F .text	00000228 main
00056948 g     O .rwdata	00000004 switch0_id
000586a8 g     O .bss	00000004 alt_envp
0005868c g     O .bss	00000004 __malloc_max_total_mem
000525b0 g     F .text	00000060 altera_avalon_jtag_uart_write_fd
000406c0 g     F .text	00000068 AIC23_head_lrs
000506c0 g     F .text	00000008 __sclose
00072000 g       *ABS*	00000000 __alt_heap_limit
00050868 g     F .text	00000014 fclose
0004a464 g     F .text	00001728 _dtoa_r
0004c12c g     F .text	000007a8 _malloc_r
000569a0 g     O .rwdata	00000004 alt_errno
00050128 g     F .text	000000c4 _fwalk
00044b00 g     F .text	00000054 .hidden __divsi3
0004fd14 g     F .text	00000124 _malloc_trim_r
00054838 g       *ABS*	00000000 __CTOR_END__
000450a0 g     F .text	00000424 .hidden __mulsf3
00056974 g     O .rwdata	00000002 gain
0005695c g     O .rwdata	00000004 key3_id
0004e220 g     F .text	000000a4 strcmp
00054838 g       *ABS*	00000000 __flash_rodata_start
00054838 g       *ABS*	00000000 __DTOR_LIST__
000426e4 g     F .text	000000b8 uart_sendFloat
00058638 g     O .bss	00000004 key3
00044a78 g     F .text	0000001c copysign
00041280 g     F .text	00000054 delay
00046ba0 g     F .text	00000084 .hidden __nedf2
000524b4 g     F .text	00000034 alt_irq_init
00052224 g     F .text	00000060 alt_release_fd
000408c8 g     F .text	00000064 AIC23_head_rhv
0004092c g     F .text	0000005c AIC23_sidetone_disable
00054a40 g     O .rodata	00000100 .hidden __clz_tab
00058680 g     O .bss	00000004 _PathLocale
00058628 g     O .bss	00000004 switch1
00054494 g     F .text	00000014 atexit
00040d54 g     F .text	00000048 AIC23_power_on
000506c8 g     F .text	0000005c _write_r
0004c104 g     F .text	0000001c setlocale
00056960 g     O .rwdata	00000004 leftready_id
00054d44 g     O .rwdata	0000002c aic23_config
0005697c g     O .rwdata	00000004 _impure_ptr
000586a0 g     O .bss	00000004 alt_argc
0004f6e0 g     F .text	00000208 __sflush_r
000448ac g     F .text	000001cc scalbn
00040c14 g     F .text	0000006c AIC23_dac_mute
00053b60 g     F .text	0000005c _do_dtors
0004c0f0 g     F .text	00000008 __locale_cjk_lang
00058650 g     O .bss	00000002 RxHead
00040020 g       .exceptions	00000000 alt_irq_entry
0004d71c g     F .text	00000060 __ulp
0004fcfc g     F .text	00000018 __fp_unlock_all
0004058c g     F .text	00000068 AIC23_line_rls
000416c0 g     F .text	00000494 fft
0005698c g     O .rwdata	00000008 alt_fs_list
0004261c g     F .text	00000054 uart_sendByte
00040f2c g     F .text	00000070 AIC23_input_len
00040020 g       *ABS*	00000000 __ram_exceptions_start
0004c120 g     F .text	0000000c localeconv
00040000 g       *ABS*	00000000 __alt_mem_onchip_memory2
00054dc4 g     O .rwdata	00000014 sine_table
0004279c g     F .text	00000098 uart_SendLeftBuff
000409f4 g     F .text	0000006c AIC23_dac_select
00040728 g     F .text	00000068 AIC23_head_lzc
00056970 g     O .rwdata	00000004 calBuffersize
00053e44 g     F .text	00000050 alt_ic_isr_register
000569b4 g       *ABS*	00000000 _edata
00052f9c g     F .text	00000060 altera_avalon_uart_read_fd
00059e20 g       *ABS*	00000000 _end
000401bc g       *ABS*	00000000 __ram_exceptions_end
00052a8c g     F .text	000000ec altera_avalon_jtag_uart_ioctl
00058634 g     O .bss	00000004 key2
00058648 g     O .bss	00000004 rightChannel
00058640 g     O .bss	00000004 rightready
00053f34 g     F .text	000000a4 alt_ic_irq_disable
000505e8 g     F .text	0000007c __swrite
00056988 g     O .rwdata	00000004 __malloc_trim_threshold
000543e8 g     F .text	00000020 altera_nios2_qsys_irq_init
0004c0e4 g     F .text	0000000c __locale_msgcharset
000544a8 g     F .text	00000038 exit
000501ec g     F .text	000000c4 _fwalk_reent
0004d584 g     F .text	00000198 __mdiff
00044b54 g     F .text	0000005c .hidden __modsi3
000402e4 g     F .text	00000050 AIC23_config
00072000 g       *ABS*	00000000 __alt_data_end
00040020 g     F .exceptions	00000000 alt_exception
00058678 g     O .bss	00000004 uart
0004fcd8 g     F .text	00000004 __sfp_lock_release
00058644 g     O .bss	00000004 leftChannel
00053410 g     F .text	00000054 altera_avalon_uart_close
00054804 g     F .text	00000034 _exit
0005388c g     F .text	00000140 alt_alarm_start
00041684 g     F .text	0000003c I2S_send_lr
000502b0 g     F .text	000001b8 __smakebuf_r
0004823c g     F .text	00000098 strlen
00051f80 g     F .text	00000158 open
00046c24 g     F .text	000000e0 .hidden __gedf2
00053e14 g     F .text	00000030 alt_icache_flush_all
0005866c g     O .bss	00000004 sr
00040418 g     F .text	00000040 AIC23_read
000569a4 g     O .rwdata	00000004 alt_priority_mask
00053e94 g     F .text	000000a0 alt_ic_irq_enable
000534b4 g     F .text	000001dc altera_avalon_uart_read
00059cb4 g     O .bss	00000036 rightChannelData
00047428 g     F .text	000008d0 .hidden __subdf3
0004cfac g     F .text	000000b0 __lo0bits
00058624 g     O .bss	00000004 switch0
000569ac g     O .rwdata	00000008 alt_alarm_list
00053b04 g     F .text	0000005c _do_ctors
00051704 g     F .text	000000d0 close
00044bc0 g     F .text	000004e0 .hidden __addsf3
00051c08 g     F .text	00000080 alt_load
0005865c g     O .bss	00000004 rightCount
00000000  w      *UND*	00000000 free
0004fcdc g     F .text	00000004 __sinit_lock_acquire
0004cd20 g     F .text	00000120 __multadd
0004ccf8 g     F .text	00000028 _Bfree



Disassembly of section .entry:

00040000 <__reset>:
#if NIOS2_ICACHE_SIZE > 0 && defined(ALT_ALLOW_CODE_AT_RESET) && !defined(ALT_SIM_OPTIMIZE)
    /* Assume the instruction cache size is always a power of two. */
#if NIOS2_ICACHE_SIZE > 0x8000
    movhi r2, %hi(NIOS2_ICACHE_SIZE)
#else
    movui r2, NIOS2_ICACHE_SIZE
   40000:	00840014 	movui	r2,4096
#endif

0:
    initi r2
   40004:	1001483a 	initi	r2
    addi r2, r2, -NIOS2_ICACHE_LINE_SIZE
   40008:	10bff804 	addi	r2,r2,-32
    bgt r2, zero, 0b
   4000c:	00bffd16 	blt	zero,r2,40004 <__alt_data_end+0xfffce004>
 * Jump to the _start entry point in the .text section if reset code
 * is allowed or if optimizing for RTL simulation.
 */
#if defined(ALT_ALLOW_CODE_AT_RESET) || defined(ALT_SIM_OPTIMIZE)
    /* Jump to the _start entry point in the .text section. */
    movhi r1, %hi(_start)
   40010:	00400134 	movhi	at,4
    ori r1, r1, %lo(_start)
   40014:	08406f14 	ori	at,at,444
    jmp r1
   40018:	0800683a 	jmp	at
   4001c:	00000000 	call	0 <__alt_mem_onchip_memory2-0x40000>

Disassembly of section .exceptions:

00040020 <alt_exception>:

#else /* ALT_EXCEPTION_STACK disabled */
        /* 
         * Reserve space on normal stack for registers about to be pushed.
         */
        addi  sp, sp, -76
   40020:	deffed04 	addi	sp,sp,-76
         * documentation for details).
         *
         * Leave a gap in the stack frame at 4(sp) for the muldiv handler to
         * store zero into.
         */
        stw   ra,  0(sp)
   40024:	dfc00015 	stw	ra,0(sp)
        stw   r1,   8(sp)
   40028:	d8400215 	stw	at,8(sp)
        stw   r2,  12(sp)
   4002c:	d8800315 	stw	r2,12(sp)
        stw   r3,  16(sp)
   40030:	d8c00415 	stw	r3,16(sp)
        stw   r4,  20(sp)
   40034:	d9000515 	stw	r4,20(sp)
        stw   r5,  24(sp)
   40038:	d9400615 	stw	r5,24(sp)
        stw   r6,  28(sp)
   4003c:	d9800715 	stw	r6,28(sp)
        stw   r7,  32(sp)
   40040:	d9c00815 	stw	r7,32(sp)
        rdctl r5, estatus   /* Read early to avoid usage stall */
   40044:	000b307a 	rdctl	r5,estatus
        stw   r8,  36(sp)
   40048:	da000915 	stw	r8,36(sp)
        stw   r9,  40(sp)
   4004c:	da400a15 	stw	r9,40(sp)
        stw   r10, 44(sp)
   40050:	da800b15 	stw	r10,44(sp)
        stw   r11, 48(sp)
   40054:	dac00c15 	stw	r11,48(sp)
        stw   r12, 52(sp)
   40058:	db000d15 	stw	r12,52(sp)
        stw   r13, 56(sp)
   4005c:	db400e15 	stw	r13,56(sp)
        stw   r14, 60(sp)
   40060:	db800f15 	stw	r14,60(sp)
        stw   r15, 64(sp)
   40064:	dbc01015 	stw	r15,64(sp)
        /*
         * ea-4 contains the address of the instruction being executed
         * when the exception occured. For interrupt exceptions, we will
         * will be re-issue the isntruction. Store it in 72(sp)
         */
        stw   r5,  68(sp)  /* estatus */
   40068:	d9401115 	stw	r5,68(sp)
        addi  r15, ea, -4  /* instruction that caused exception */
   4006c:	ebffff04 	addi	r15,ea,-4
        stw   r15,  72(sp)
   40070:	dbc01215 	stw	r15,72(sp)
#else
        /*
         * Test to see if the exception was a software exception or caused 
         * by an external interrupt, and vector accordingly.
         */
        rdctl r4, ipending
   40074:	0009313a 	rdctl	r4,ipending
        andi  r2, r5, 1
   40078:	2880004c 	andi	r2,r5,1
        beq   r2, zero, .Lnot_irq
   4007c:	10000326 	beq	r2,zero,4008c <alt_exception+0x6c>
        beq   r4, zero, .Lnot_irq
   40080:	20000226 	beq	r4,zero,4008c <alt_exception+0x6c>
        /*
         * Now that all necessary registers have been preserved, call 
         * alt_irq_handler() to process the interrupts.
         */

        call alt_irq_handler
   40084:	00400ec0 	call	400ec <alt_irq_handler>

        .section .exceptions.irqreturn, "xa"

        br    .Lexception_exit
   40088:	00000306 	br	40098 <alt_exception_unknown+0x4>
         * upon completion, so we write ea (address of instruction *after*
         * the one where the exception occured) into 72(sp). The actual
         * instruction that caused the exception is written in r2, which these
         * handlers will utilize.
         */
        stw   ea,  72(sp)  /* Don't re-issue */
   4008c:	df401215 	stw	ea,72(sp)
        ldw   r2, -4(ea)   /* Instruction that caused exception */
   40090:	e8bfff17 	ldw	r2,-4(ea)

00040094 <alt_exception_unknown>:
#ifdef NIOS2_HAS_DEBUG_STUB
       /*
        *  Either tell the user now (if there is a debugger attached) or go into
        *  the debug monitor which will loop until a debugger is attached.
        */
        break
   40094:	003da03a 	break	0
        /* 
         * Restore the saved registers, so that all general purpose registers 
         * have been restored to their state at the time the interrupt occured.
         */

        ldw   r5,  68(sp)
   40098:	d9401117 	ldw	r5,68(sp)
        ldw   ea,  72(sp)  /* This becomes the PC once eret is executed */
   4009c:	df401217 	ldw	ea,72(sp)
        ldw   ra,   0(sp)
   400a0:	dfc00017 	ldw	ra,0(sp)

        wrctl estatus, r5
   400a4:	2801707a 	wrctl	estatus,r5

        ldw   r1,   8(sp)
   400a8:	d8400217 	ldw	at,8(sp)
        ldw   r2,  12(sp)
   400ac:	d8800317 	ldw	r2,12(sp)
        ldw   r3,  16(sp)
   400b0:	d8c00417 	ldw	r3,16(sp)
        ldw   r4,  20(sp)
   400b4:	d9000517 	ldw	r4,20(sp)
        ldw   r5,  24(sp)
   400b8:	d9400617 	ldw	r5,24(sp)
        ldw   r6,  28(sp)
   400bc:	d9800717 	ldw	r6,28(sp)
        ldw   r7,  32(sp)
   400c0:	d9c00817 	ldw	r7,32(sp)

#if defined(ALT_EXCEPTION_STACK) && defined(ALT_STACK_CHECK)
        ldw   et, %gprel(alt_exception_old_stack_limit)(gp)
#endif

        ldw   r8,  36(sp)
   400c4:	da000917 	ldw	r8,36(sp)
        ldw   r9,  40(sp)
   400c8:	da400a17 	ldw	r9,40(sp)
        ldw   r10, 44(sp)
   400cc:	da800b17 	ldw	r10,44(sp)
        ldw   r11, 48(sp)
   400d0:	dac00c17 	ldw	r11,48(sp)
        ldw   r12, 52(sp)
   400d4:	db000d17 	ldw	r12,52(sp)
        ldw   r13, 56(sp)
   400d8:	db400e17 	ldw	r13,56(sp)
        ldw   r14, 60(sp)
   400dc:	db800f17 	ldw	r14,60(sp)
        ldw   r15, 64(sp)
   400e0:	dbc01017 	ldw	r15,64(sp)
        stw   et, %gprel(alt_stack_limit_value)(gp)
        stw   zero, %gprel(alt_exception_old_stack_limit)(gp)
#endif /* ALT_STACK_CHECK */
        ldw   sp,  76(sp)
#else /* ALT_EXCEPTION_STACK disabled */
        addi  sp, sp, 76
   400e4:	dec01304 	addi	sp,sp,76

        /*
         * Return to the interrupted instruction.
         */

        eret
   400e8:	ef80083a 	eret

000400ec <alt_irq_handler>:
 * instruction is present if the macro ALT_CI_INTERRUPT_VECTOR defined.
 */

void alt_irq_handler (void) __attribute__ ((section (".exceptions")));
void alt_irq_handler (void)
{
   400ec:	defff904 	addi	sp,sp,-28
   400f0:	dfc00615 	stw	ra,24(sp)
   400f4:	df000515 	stw	fp,20(sp)
   400f8:	df000504 	addi	fp,sp,20
  
  /*
   * Notify the operating system that we are at interrupt level.
   */ 
  
  ALT_OS_INT_ENTER();
   400fc:	0001883a 	nop
#ifndef NIOS2_EIC_PRESENT
static ALT_INLINE alt_u32 ALT_ALWAYS_INLINE alt_irq_pending (void)
{
  alt_u32 active;

  NIOS2_READ_IPENDING (active);
   40100:	0005313a 	rdctl	r2,ipending
   40104:	e0bffe15 	stw	r2,-8(fp)

  return active;
   40108:	e0bffe17 	ldw	r2,-8(fp)
   * Consider the case where the high priority interupt is asserted during
   * the interrupt entry sequence for a lower priority interrupt to see why
   * this is the case.
   */

  active = alt_irq_pending ();
   4010c:	e0bffb15 	stw	r2,-20(fp)

  do
  {
    i = 0;
   40110:	e03ffd15 	stw	zero,-12(fp)
    mask = 1;
   40114:	00800044 	movi	r2,1
   40118:	e0bffc15 	stw	r2,-16(fp)
     * called to clear the interrupt condition.
     */

    do
    {
      if (active & mask)
   4011c:	e0fffb17 	ldw	r3,-20(fp)
   40120:	e0bffc17 	ldw	r2,-16(fp)
   40124:	1884703a 	and	r2,r3,r2
   40128:	10001426 	beq	r2,zero,4017c <alt_irq_handler+0x90>
      { 
#ifdef ALT_ENHANCED_INTERRUPT_API_PRESENT
        alt_irq[i].handler(alt_irq[i].context); 
   4012c:	008001b4 	movhi	r2,6
   40130:	10a74804 	addi	r2,r2,-25312
   40134:	e0fffd17 	ldw	r3,-12(fp)
   40138:	180690fa 	slli	r3,r3,3
   4013c:	10c5883a 	add	r2,r2,r3
   40140:	10c00017 	ldw	r3,0(r2)
   40144:	008001b4 	movhi	r2,6
   40148:	10a74804 	addi	r2,r2,-25312
   4014c:	e13ffd17 	ldw	r4,-12(fp)
   40150:	200890fa 	slli	r4,r4,3
   40154:	21000104 	addi	r4,r4,4
   40158:	1105883a 	add	r2,r2,r4
   4015c:	10800017 	ldw	r2,0(r2)
   40160:	1009883a 	mov	r4,r2
   40164:	183ee83a 	callr	r3
#else
        alt_irq[i].handler(alt_irq[i].context, i); 
#endif
        break;
   40168:	0001883a 	nop
#ifndef NIOS2_EIC_PRESENT
static ALT_INLINE alt_u32 ALT_ALWAYS_INLINE alt_irq_pending (void)
{
  alt_u32 active;

  NIOS2_READ_IPENDING (active);
   4016c:	0005313a 	rdctl	r2,ipending
   40170:	e0bfff15 	stw	r2,-4(fp)

  return active;
   40174:	e0bfff17 	ldw	r2,-4(fp)
   40178:	00000706 	br	40198 <alt_irq_handler+0xac>
      }
      mask <<= 1;
   4017c:	e0bffc17 	ldw	r2,-16(fp)
   40180:	1085883a 	add	r2,r2,r2
   40184:	e0bffc15 	stw	r2,-16(fp)
      i++;
   40188:	e0bffd17 	ldw	r2,-12(fp)
   4018c:	10800044 	addi	r2,r2,1
   40190:	e0bffd15 	stw	r2,-12(fp)

    } while (1);
   40194:	003fe106 	br	4011c <__alt_data_end+0xfffce11c>

    active = alt_irq_pending ();
   40198:	e0bffb15 	stw	r2,-20(fp)
    
  } while (active);
   4019c:	e0bffb17 	ldw	r2,-20(fp)
   401a0:	103fdb1e 	bne	r2,zero,40110 <__alt_data_end+0xfffce110>

  /*
   * Notify the operating system that interrupt processing is complete.
   */ 

  ALT_OS_INT_EXIT();
   401a4:	0001883a 	nop
}
   401a8:	e037883a 	mov	sp,fp
   401ac:	dfc00117 	ldw	ra,4(sp)
   401b0:	df000017 	ldw	fp,0(sp)
   401b4:	dec00204 	addi	sp,sp,8
   401b8:	f800283a 	ret

Disassembly of section .text:

000401bc <_start>:

    /* Assume the data cache size is always a power of two. */
#if NIOS2_DCACHE_SIZE > 0x8000
    movhi r2, %hi(NIOS2_DCACHE_SIZE)
#else
    movui r2, NIOS2_DCACHE_SIZE
   401bc:	00820014 	movui	r2,2048
#endif

0:
    initd 0(r2)
   401c0:	10000033 	initd	0(r2)
#ifdef NIOS2_ECC_PRESENT
    addi r2, r2, -4
#else
    addi r2, r2, -NIOS2_DCACHE_LINE_SIZE
   401c4:	10bff804 	addi	r2,r2,-32
#endif
    bgt r2, zero, 0b
   401c8:	00bffd16 	blt	zero,r2,401c0 <__alt_data_end+0xfffce1c0>

    /*
     * Now that the caches are initialized, set up the stack pointer and global pointer.
     * The values provided by the linker are assumed to be correctly aligned.
     */
    movhi sp, %hi(__alt_stack_pointer)
   401cc:	06c001f4 	movhi	sp,7
    ori sp, sp, %lo(__alt_stack_pointer)
   401d0:	dec80014 	ori	sp,sp,8192
    movhi gp, %hi(_gp)
   401d4:	06800174 	movhi	gp,5
    ori gp, gp, %lo(_gp)
   401d8:	d6ba5214 	ori	gp,gp,59720
 */
#ifndef ALT_SIM_OPTIMIZE
    /* Log that the BSS is about to be cleared. */
    ALT_LOG_PUTS(alt_log_msg_bss)

    movhi r2, %hi(__bss_start)
   401dc:	00800174 	movhi	r2,5
    ori r2, r2, %lo(__bss_start)
   401e0:	10a18914 	ori	r2,r2,34340

    movhi r3, %hi(__bss_end)
   401e4:	00c00174 	movhi	r3,5
    ori r3, r3, %lo(__bss_end)
   401e8:	18e78814 	ori	r3,r3,40480

    beq r2, r3, 1f
   401ec:	10c00326 	beq	r2,r3,401fc <_start+0x40>

0:
    stw zero, (r2)
   401f0:	10000015 	stw	zero,0(r2)
    addi r2, r2, 4
   401f4:	10800104 	addi	r2,r2,4
    bltu r2, r3, 0b
   401f8:	10fffd36 	bltu	r2,r3,401f0 <__alt_data_end+0xfffce1f0>
     * section aren't defined until alt_load() has been called).
     */
    mov   et, zero
#endif

    call alt_load
   401fc:	0051c080 	call	51c08 <alt_load>

    /* Log that alt_main is about to be called. */
    ALT_LOG_PUTS(alt_log_msg_alt_main)

    /* Call the C entry point. It should never return. */
    call alt_main
   40200:	0051dac0 	call	51dac <alt_main>

00040204 <alt_after_alt_main>:

    /* Wait in infinite loop in case alt_main does return. */
alt_after_alt_main:
    br alt_after_alt_main
   40204:	003fff06 	br	40204 <__alt_data_end+0xfffce204>

00040208 <AIC23_init>:
//AIC Master Mode                                                           0130     0A00    0C00    0E5E   (0001->48k,0019->32k, 0023->44.1k, 001D->96k)
extern unsigned int aic23_demo[10];    // = {0x0017, 0x0017, 0x01f9, 0x01f9, 0x0012, 0x0000, 0x0000, 0x0042, 0x0001, 0x0001};;


// Initializes AIC to default
void AIC23_init(){
   40208:	defffd04 	addi	sp,sp,-12
   4020c:	dfc00215 	stw	ra,8(sp)
   40210:	df000115 	stw	fp,4(sp)
   40214:	df000104 	addi	fp,sp,4
	int i = 0;
   40218:	e03fff15 	stw	zero,-4(fp)
	for(i = 0; i < 11; i++){
   4021c:	e03fff15 	stw	zero,-4(fp)
   40220:	00001c06 	br	40294 <AIC23_init+0x8c>
		spi_send(i, aic23_default_config[i]);
   40224:	e13fff17 	ldw	r4,-4(fp)
   40228:	00800174 	movhi	r2,5
   4022c:	10935c04 	addi	r2,r2,19824
   40230:	e0ffff17 	ldw	r3,-4(fp)
   40234:	18c7883a 	add	r3,r3,r3
   40238:	18c7883a 	add	r3,r3,r3
   4023c:	10c5883a 	add	r2,r2,r3
   40240:	10800017 	ldw	r2,0(r2)
   40244:	100b883a 	mov	r5,r2
   40248:	004249c0 	call	4249c <spi_send>
		aic23_config[i] = aic23_default_config[i];
   4024c:	00800174 	movhi	r2,5
   40250:	10935c04 	addi	r2,r2,19824
   40254:	e0ffff17 	ldw	r3,-4(fp)
   40258:	18c7883a 	add	r3,r3,r3
   4025c:	18c7883a 	add	r3,r3,r3
   40260:	10c5883a 	add	r2,r2,r3
   40264:	10800017 	ldw	r2,0(r2)
   40268:	1009883a 	mov	r4,r2
   4026c:	00800174 	movhi	r2,5
   40270:	10935104 	addi	r2,r2,19780
   40274:	e0ffff17 	ldw	r3,-4(fp)
   40278:	18c7883a 	add	r3,r3,r3
   4027c:	18c7883a 	add	r3,r3,r3
   40280:	10c5883a 	add	r2,r2,r3
   40284:	11000015 	stw	r4,0(r2)


// Initializes AIC to default
void AIC23_init(){
	int i = 0;
	for(i = 0; i < 11; i++){
   40288:	e0bfff17 	ldw	r2,-4(fp)
   4028c:	10800044 	addi	r2,r2,1
   40290:	e0bfff15 	stw	r2,-4(fp)
   40294:	e0bfff17 	ldw	r2,-4(fp)
   40298:	108002d0 	cmplti	r2,r2,11
   4029c:	103fe11e 	bne	r2,zero,40224 <__alt_data_end+0xfffce224>
		spi_send(i, aic23_default_config[i]);
		aic23_config[i] = aic23_default_config[i];
	}
}
   402a0:	e037883a 	mov	sp,fp
   402a4:	dfc00117 	ldw	ra,4(sp)
   402a8:	df000017 	ldw	fp,0(sp)
   402ac:	dec00204 	addi	sp,sp,8
   402b0:	f800283a 	ret

000402b4 <AIC23_reset>:

void AIC23_reset(){
   402b4:	defffe04 	addi	sp,sp,-8
   402b8:	dfc00115 	stw	ra,4(sp)
   402bc:	df000015 	stw	fp,0(sp)
   402c0:	d839883a 	mov	fp,sp
	spi_send(0x0F, 0x00);
   402c4:	010003c4 	movi	r4,15
   402c8:	000b883a 	mov	r5,zero
   402cc:	004249c0 	call	4249c <spi_send>
}
   402d0:	e037883a 	mov	sp,fp
   402d4:	dfc00117 	ldw	ra,4(sp)
   402d8:	df000017 	ldw	fp,0(sp)
   402dc:	dec00204 	addi	sp,sp,8
   402e0:	f800283a 	ret

000402e4 <AIC23_config>:

void AIC23_config(int address, int setting){
   402e4:	defffc04 	addi	sp,sp,-16
   402e8:	dfc00315 	stw	ra,12(sp)
   402ec:	df000215 	stw	fp,8(sp)
   402f0:	df000204 	addi	fp,sp,8
   402f4:	e13ffe15 	stw	r4,-8(fp)
   402f8:	e17fff15 	stw	r5,-4(fp)
	aic23_demo[address] = setting;
   402fc:	e13fff17 	ldw	r4,-4(fp)
   40300:	00800174 	movhi	r2,5
   40304:	10936704 	addi	r2,r2,19868
   40308:	e0fffe17 	ldw	r3,-8(fp)
   4030c:	18c7883a 	add	r3,r3,r3
   40310:	18c7883a 	add	r3,r3,r3
   40314:	10c5883a 	add	r2,r2,r3
   40318:	11000015 	stw	r4,0(r2)
	AIC23_demo();
   4031c:	00403340 	call	40334 <AIC23_demo>
}
   40320:	e037883a 	mov	sp,fp
   40324:	dfc00117 	ldw	ra,4(sp)
   40328:	df000017 	ldw	fp,0(sp)
   4032c:	dec00204 	addi	sp,sp,8
   40330:	f800283a 	ret

00040334 <AIC23_demo>:

/*AIC configuration function: Update all control registers*/
void AIC23_demo(){
   40334:	defffd04 	addi	sp,sp,-12
   40338:	dfc00215 	stw	ra,8(sp)
   4033c:	df000115 	stw	fp,4(sp)
   40340:	df000104 	addi	fp,sp,4
	int i = 0;
   40344:	e03fff15 	stw	zero,-4(fp)
	for(i = 0; i < 10; i++){
   40348:	e03fff15 	stw	zero,-4(fp)
   4034c:	00001b06 	br	403bc <AIC23_demo+0x88>
		spi_send(i, aic23_demo[i]);
   40350:	e13fff17 	ldw	r4,-4(fp)
   40354:	00800174 	movhi	r2,5
   40358:	10936704 	addi	r2,r2,19868
   4035c:	e0ffff17 	ldw	r3,-4(fp)
   40360:	18c7883a 	add	r3,r3,r3
   40364:	18c7883a 	add	r3,r3,r3
   40368:	10c5883a 	add	r2,r2,r3
   4036c:	10800017 	ldw	r2,0(r2)
   40370:	100b883a 	mov	r5,r2
   40374:	004249c0 	call	4249c <spi_send>
		aic23_config[i] = aic23_demo[i];
   40378:	00800174 	movhi	r2,5
   4037c:	10936704 	addi	r2,r2,19868
   40380:	e0ffff17 	ldw	r3,-4(fp)
   40384:	18c7883a 	add	r3,r3,r3
   40388:	18c7883a 	add	r3,r3,r3
   4038c:	10c5883a 	add	r2,r2,r3
   40390:	11000017 	ldw	r4,0(r2)
   40394:	00800174 	movhi	r2,5
   40398:	10935104 	addi	r2,r2,19780
   4039c:	e0ffff17 	ldw	r3,-4(fp)
   403a0:	18c7883a 	add	r3,r3,r3
   403a4:	18c7883a 	add	r3,r3,r3
   403a8:	10c5883a 	add	r2,r2,r3
   403ac:	11000015 	stw	r4,0(r2)
}

/*AIC configuration function: Update all control registers*/
void AIC23_demo(){
	int i = 0;
	for(i = 0; i < 10; i++){
   403b0:	e0bfff17 	ldw	r2,-4(fp)
   403b4:	10800044 	addi	r2,r2,1
   403b8:	e0bfff15 	stw	r2,-4(fp)
   403bc:	e0bfff17 	ldw	r2,-4(fp)
   403c0:	10800290 	cmplti	r2,r2,10
   403c4:	103fe21e 	bne	r2,zero,40350 <__alt_data_end+0xfffce350>
		spi_send(i, aic23_demo[i]);
		aic23_config[i] = aic23_demo[i];
	}
}
   403c8:	e037883a 	mov	sp,fp
   403cc:	dfc00117 	ldw	ra,4(sp)
   403d0:	df000017 	ldw	fp,0(sp)
   403d4:	dec00204 	addi	sp,sp,8
   403d8:	f800283a 	ret

000403dc <AIC_setFreq>:



void AIC_setFreq(int sampleRate){
   403dc:	defffd04 	addi	sp,sp,-12
   403e0:	dfc00215 	stw	ra,8(sp)
   403e4:	df000115 	stw	fp,4(sp)
   403e8:	df000104 	addi	fp,sp,4
   403ec:	e13fff15 	stw	r4,-4(fp)
	aic23_demo[8] = sampleRate;
   403f0:	e0ffff17 	ldw	r3,-4(fp)
   403f4:	00800174 	movhi	r2,5
   403f8:	10936704 	addi	r2,r2,19868
   403fc:	10c00815 	stw	r3,32(r2)
	AIC23_demo();
   40400:	00403340 	call	40334 <AIC23_demo>
}
   40404:	e037883a 	mov	sp,fp
   40408:	dfc00117 	ldw	ra,4(sp)
   4040c:	df000017 	ldw	fp,0(sp)
   40410:	dec00204 	addi	sp,sp,8
   40414:	f800283a 	ret

00040418 <AIC23_read>:
	POWER_DOWN
	DIGITAL_AUDIO_INTERFACE
	SAMPLE_RATE
	DIGITAL_INTERFACE_ACTIVATION
 */
unsigned int AIC23_read(unsigned char address){
   40418:	defffe04 	addi	sp,sp,-8
   4041c:	df000115 	stw	fp,4(sp)
   40420:	df000104 	addi	fp,sp,4
   40424:	2005883a 	mov	r2,r4
   40428:	e0bfff05 	stb	r2,-4(fp)
	return aic23_config[address];
   4042c:	e0ffff03 	ldbu	r3,-4(fp)
   40430:	00800174 	movhi	r2,5
   40434:	10935104 	addi	r2,r2,19780
   40438:	18c7883a 	add	r3,r3,r3
   4043c:	18c7883a 	add	r3,r3,r3
   40440:	10c5883a 	add	r2,r2,r3
   40444:	10800017 	ldw	r2,0(r2)
}
   40448:	e037883a 	mov	sp,fp
   4044c:	df000017 	ldw	fp,0(sp)
   40450:	dec00104 	addi	sp,sp,4
   40454:	f800283a 	ret

00040458 <AIC23_line_lrs>:
/* Left/right line simultaneous volume/mute update
   Valid inputs:
		ENABLED
		DISABLED
*/
void AIC23_line_lrs(unsigned int simultaneous_update){
   40458:	defffd04 	addi	sp,sp,-12
   4045c:	dfc00215 	stw	ra,8(sp)
   40460:	df000115 	stw	fp,4(sp)
   40464:	df000104 	addi	fp,sp,4
   40468:	e13fff15 	stw	r4,-4(fp)
	aic23_config[0] = (aic23_config[0] & 0x00FF) | (simultaneous_update << 8);
   4046c:	00800174 	movhi	r2,5
   40470:	10935104 	addi	r2,r2,19780
   40474:	10800017 	ldw	r2,0(r2)
   40478:	10c03fcc 	andi	r3,r2,255
   4047c:	e0bfff17 	ldw	r2,-4(fp)
   40480:	1004923a 	slli	r2,r2,8
   40484:	1886b03a 	or	r3,r3,r2
   40488:	00800174 	movhi	r2,5
   4048c:	10935104 	addi	r2,r2,19780
   40490:	10c00015 	stw	r3,0(r2)
	spi_send(0x00, aic23_config[0]);
   40494:	00800174 	movhi	r2,5
   40498:	10935104 	addi	r2,r2,19780
   4049c:	10800017 	ldw	r2,0(r2)
   404a0:	0009883a 	mov	r4,zero
   404a4:	100b883a 	mov	r5,r2
   404a8:	004249c0 	call	4249c <spi_send>
}
   404ac:	e037883a 	mov	sp,fp
   404b0:	dfc00117 	ldw	ra,4(sp)
   404b4:	df000017 	ldw	fp,0(sp)
   404b8:	dec00204 	addi	sp,sp,8
   404bc:	f800283a 	ret

000404c0 <AIC23_line_lim>:
/* Left line input mute
   Valid inputs:
		NORMAL
		MUTED
*/
void AIC23_line_lim(unsigned int mute){
   404c0:	defffd04 	addi	sp,sp,-12
   404c4:	dfc00215 	stw	ra,8(sp)
   404c8:	df000115 	stw	fp,4(sp)
   404cc:	df000104 	addi	fp,sp,4
   404d0:	e13fff15 	stw	r4,-4(fp)
	aic23_config[0] = (aic23_config[0] & 0x017F) | (mute << 7);
   404d4:	00800174 	movhi	r2,5
   404d8:	10935104 	addi	r2,r2,19780
   404dc:	10800017 	ldw	r2,0(r2)
   404e0:	10c05fcc 	andi	r3,r2,383
   404e4:	e0bfff17 	ldw	r2,-4(fp)
   404e8:	100491fa 	slli	r2,r2,7
   404ec:	1886b03a 	or	r3,r3,r2
   404f0:	00800174 	movhi	r2,5
   404f4:	10935104 	addi	r2,r2,19780
   404f8:	10c00015 	stw	r3,0(r2)
	spi_send(0x00, aic23_config[0]);
   404fc:	00800174 	movhi	r2,5
   40500:	10935104 	addi	r2,r2,19780
   40504:	10800017 	ldw	r2,0(r2)
   40508:	0009883a 	mov	r4,zero
   4050c:	100b883a 	mov	r5,r2
   40510:	004249c0 	call	4249c <spi_send>
}
   40514:	e037883a 	mov	sp,fp
   40518:	dfc00117 	ldw	ra,4(sp)
   4051c:	df000017 	ldw	fp,0(sp)
   40520:	dec00204 	addi	sp,sp,8
   40524:	f800283a 	ret

00040528 <AIC23_line_liv>:
/* Left line input volume control
   Valid inputs:
		0b10111 = 0dB default
		0b11111 = +12 dB down to 0b00000 = -34.5dB in 1.5dB steps
*/
void AIC23_line_liv(unsigned int volume){
   40528:	defffd04 	addi	sp,sp,-12
   4052c:	dfc00215 	stw	ra,8(sp)
   40530:	df000115 	stw	fp,4(sp)
   40534:	df000104 	addi	fp,sp,4
   40538:	e13fff15 	stw	r4,-4(fp)
	aic23_config[0] = (aic23_config[0] & 0x01E0) | (volume);
   4053c:	00800174 	movhi	r2,5
   40540:	10935104 	addi	r2,r2,19780
   40544:	10800017 	ldw	r2,0(r2)
   40548:	10c0780c 	andi	r3,r2,480
   4054c:	e0bfff17 	ldw	r2,-4(fp)
   40550:	1886b03a 	or	r3,r3,r2
   40554:	00800174 	movhi	r2,5
   40558:	10935104 	addi	r2,r2,19780
   4055c:	10c00015 	stw	r3,0(r2)
	spi_send(0x00, aic23_config[0]);
   40560:	00800174 	movhi	r2,5
   40564:	10935104 	addi	r2,r2,19780
   40568:	10800017 	ldw	r2,0(r2)
   4056c:	0009883a 	mov	r4,zero
   40570:	100b883a 	mov	r5,r2
   40574:	004249c0 	call	4249c <spi_send>
}
   40578:	e037883a 	mov	sp,fp
   4057c:	dfc00117 	ldw	ra,4(sp)
   40580:	df000017 	ldw	fp,0(sp)
   40584:	dec00204 	addi	sp,sp,8
   40588:	f800283a 	ret

0004058c <AIC23_line_rls>:
/* Right/left line simultaneous volume/mute update
   Valid inputs:
		ENABLED
		DISABLED
*/
void AIC23_line_rls(unsigned int simultaneous_update){
   4058c:	defffd04 	addi	sp,sp,-12
   40590:	dfc00215 	stw	ra,8(sp)
   40594:	df000115 	stw	fp,4(sp)
   40598:	df000104 	addi	fp,sp,4
   4059c:	e13fff15 	stw	r4,-4(fp)
	aic23_config[1] = (aic23_config[1] & 0x00FF) | (simultaneous_update << 8);
   405a0:	00800174 	movhi	r2,5
   405a4:	10935104 	addi	r2,r2,19780
   405a8:	10800117 	ldw	r2,4(r2)
   405ac:	10c03fcc 	andi	r3,r2,255
   405b0:	e0bfff17 	ldw	r2,-4(fp)
   405b4:	1004923a 	slli	r2,r2,8
   405b8:	1886b03a 	or	r3,r3,r2
   405bc:	00800174 	movhi	r2,5
   405c0:	10935104 	addi	r2,r2,19780
   405c4:	10c00115 	stw	r3,4(r2)
	spi_send(0x01, aic23_config[1]);
   405c8:	00800174 	movhi	r2,5
   405cc:	10935104 	addi	r2,r2,19780
   405d0:	10800117 	ldw	r2,4(r2)
   405d4:	01000044 	movi	r4,1
   405d8:	100b883a 	mov	r5,r2
   405dc:	004249c0 	call	4249c <spi_send>
}
   405e0:	e037883a 	mov	sp,fp
   405e4:	dfc00117 	ldw	ra,4(sp)
   405e8:	df000017 	ldw	fp,0(sp)
   405ec:	dec00204 	addi	sp,sp,8
   405f0:	f800283a 	ret

000405f4 <AIC23_line_rim>:
/* Right line input mute
   Valid inputs:
		NORMAL
		MUTED
*/
void AIC23_line_rim(unsigned int mute){
   405f4:	defffd04 	addi	sp,sp,-12
   405f8:	dfc00215 	stw	ra,8(sp)
   405fc:	df000115 	stw	fp,4(sp)
   40600:	df000104 	addi	fp,sp,4
   40604:	e13fff15 	stw	r4,-4(fp)
	aic23_config[1] = (aic23_config[1] & 0x017F) | (mute << 7);
   40608:	00800174 	movhi	r2,5
   4060c:	10935104 	addi	r2,r2,19780
   40610:	10800117 	ldw	r2,4(r2)
   40614:	10c05fcc 	andi	r3,r2,383
   40618:	e0bfff17 	ldw	r2,-4(fp)
   4061c:	100491fa 	slli	r2,r2,7
   40620:	1886b03a 	or	r3,r3,r2
   40624:	00800174 	movhi	r2,5
   40628:	10935104 	addi	r2,r2,19780
   4062c:	10c00115 	stw	r3,4(r2)
	spi_send(0x01, aic23_config[1]);
   40630:	00800174 	movhi	r2,5
   40634:	10935104 	addi	r2,r2,19780
   40638:	10800117 	ldw	r2,4(r2)
   4063c:	01000044 	movi	r4,1
   40640:	100b883a 	mov	r5,r2
   40644:	004249c0 	call	4249c <spi_send>
}
   40648:	e037883a 	mov	sp,fp
   4064c:	dfc00117 	ldw	ra,4(sp)
   40650:	df000017 	ldw	fp,0(sp)
   40654:	dec00204 	addi	sp,sp,8
   40658:	f800283a 	ret

0004065c <AIC23_line_riv>:
/* Right line input volume control
   Valid inputs:
		0b10111 = 0dB default
		0b11111 = +12 dB down to 0b00000 = -34.5dB in 1.5dB steps
*/
void AIC23_line_riv(unsigned int volume){
   4065c:	defffd04 	addi	sp,sp,-12
   40660:	dfc00215 	stw	ra,8(sp)
   40664:	df000115 	stw	fp,4(sp)
   40668:	df000104 	addi	fp,sp,4
   4066c:	e13fff15 	stw	r4,-4(fp)
	aic23_config[1] = (aic23_config[1] & 0x01E0) | (volume);
   40670:	00800174 	movhi	r2,5
   40674:	10935104 	addi	r2,r2,19780
   40678:	10800117 	ldw	r2,4(r2)
   4067c:	10c0780c 	andi	r3,r2,480
   40680:	e0bfff17 	ldw	r2,-4(fp)
   40684:	1886b03a 	or	r3,r3,r2
   40688:	00800174 	movhi	r2,5
   4068c:	10935104 	addi	r2,r2,19780
   40690:	10c00115 	stw	r3,4(r2)
	spi_send(0x01, aic23_config[1]);
   40694:	00800174 	movhi	r2,5
   40698:	10935104 	addi	r2,r2,19780
   4069c:	10800117 	ldw	r2,4(r2)
   406a0:	01000044 	movi	r4,1
   406a4:	100b883a 	mov	r5,r2
   406a8:	004249c0 	call	4249c <spi_send>
}
   406ac:	e037883a 	mov	sp,fp
   406b0:	dfc00117 	ldw	ra,4(sp)
   406b4:	df000017 	ldw	fp,0(sp)
   406b8:	dec00204 	addi	sp,sp,8
   406bc:	f800283a 	ret

000406c0 <AIC23_head_lrs>:
/* Left/right headphone simultaneous volume/mute update
   Valid inputs:
		ENABLED
		DISABLED
*/
void AIC23_head_lrs(unsigned int simultaneous_update){
   406c0:	defffd04 	addi	sp,sp,-12
   406c4:	dfc00215 	stw	ra,8(sp)
   406c8:	df000115 	stw	fp,4(sp)
   406cc:	df000104 	addi	fp,sp,4
   406d0:	e13fff15 	stw	r4,-4(fp)
	aic23_config[2] = (aic23_config[2] & 0x00FF) | (simultaneous_update << 8);
   406d4:	00800174 	movhi	r2,5
   406d8:	10935104 	addi	r2,r2,19780
   406dc:	10800217 	ldw	r2,8(r2)
   406e0:	10c03fcc 	andi	r3,r2,255
   406e4:	e0bfff17 	ldw	r2,-4(fp)
   406e8:	1004923a 	slli	r2,r2,8
   406ec:	1886b03a 	or	r3,r3,r2
   406f0:	00800174 	movhi	r2,5
   406f4:	10935104 	addi	r2,r2,19780
   406f8:	10c00215 	stw	r3,8(r2)
	spi_send(0x02, aic23_config[2]);
   406fc:	00800174 	movhi	r2,5
   40700:	10935104 	addi	r2,r2,19780
   40704:	10800217 	ldw	r2,8(r2)
   40708:	01000084 	movi	r4,2
   4070c:	100b883a 	mov	r5,r2
   40710:	004249c0 	call	4249c <spi_send>
}
   40714:	e037883a 	mov	sp,fp
   40718:	dfc00117 	ldw	ra,4(sp)
   4071c:	df000017 	ldw	fp,0(sp)
   40720:	dec00204 	addi	sp,sp,8
   40724:	f800283a 	ret

00040728 <AIC23_head_lzc>:
/* Left Channel Zero-Cross Detect
   Valid inputs:
		ON
		OFF
*/
void AIC23_head_lzc(unsigned int zero){
   40728:	defffd04 	addi	sp,sp,-12
   4072c:	dfc00215 	stw	ra,8(sp)
   40730:	df000115 	stw	fp,4(sp)
   40734:	df000104 	addi	fp,sp,4
   40738:	e13fff15 	stw	r4,-4(fp)
	aic23_config[2] = (aic23_config[2] & 0x017F) | (zero << 7);
   4073c:	00800174 	movhi	r2,5
   40740:	10935104 	addi	r2,r2,19780
   40744:	10800217 	ldw	r2,8(r2)
   40748:	10c05fcc 	andi	r3,r2,383
   4074c:	e0bfff17 	ldw	r2,-4(fp)
   40750:	100491fa 	slli	r2,r2,7
   40754:	1886b03a 	or	r3,r3,r2
   40758:	00800174 	movhi	r2,5
   4075c:	10935104 	addi	r2,r2,19780
   40760:	10c00215 	stw	r3,8(r2)
	spi_send(0x02, aic23_config[2]);
   40764:	00800174 	movhi	r2,5
   40768:	10935104 	addi	r2,r2,19780
   4076c:	10800217 	ldw	r2,8(r2)
   40770:	01000084 	movi	r4,2
   40774:	100b883a 	mov	r5,r2
   40778:	004249c0 	call	4249c <spi_send>
}
   4077c:	e037883a 	mov	sp,fp
   40780:	dfc00117 	ldw	ra,4(sp)
   40784:	df000017 	ldw	fp,0(sp)
   40788:	dec00204 	addi	sp,sp,8
   4078c:	f800283a 	ret

00040790 <AIC23_head_lhv>:
   Valid Inputs:
   	   0b1111001 = 0dB default
   	   0b1111111 = +6dB down to 0b0110000 = -73dB mute in 1dB increments
   	   Anything lower than -73dB is still mute. 79 steps in between max/min.
 */
void AIC23_head_lhv(unsigned int volume){
   40790:	defffd04 	addi	sp,sp,-12
   40794:	dfc00215 	stw	ra,8(sp)
   40798:	df000115 	stw	fp,4(sp)
   4079c:	df000104 	addi	fp,sp,4
   407a0:	e13fff15 	stw	r4,-4(fp)
	aic23_config[2] = (aic23_config[2] & 0x0180) | volume;
   407a4:	00800174 	movhi	r2,5
   407a8:	10935104 	addi	r2,r2,19780
   407ac:	10800217 	ldw	r2,8(r2)
   407b0:	10c0600c 	andi	r3,r2,384
   407b4:	e0bfff17 	ldw	r2,-4(fp)
   407b8:	1886b03a 	or	r3,r3,r2
   407bc:	00800174 	movhi	r2,5
   407c0:	10935104 	addi	r2,r2,19780
   407c4:	10c00215 	stw	r3,8(r2)
	spi_send(0x02, aic23_config[2]);
   407c8:	00800174 	movhi	r2,5
   407cc:	10935104 	addi	r2,r2,19780
   407d0:	10800217 	ldw	r2,8(r2)
   407d4:	01000084 	movi	r4,2
   407d8:	100b883a 	mov	r5,r2
   407dc:	004249c0 	call	4249c <spi_send>
}
   407e0:	e037883a 	mov	sp,fp
   407e4:	dfc00117 	ldw	ra,4(sp)
   407e8:	df000017 	ldw	fp,0(sp)
   407ec:	dec00204 	addi	sp,sp,8
   407f0:	f800283a 	ret

000407f4 <AIC23_head_rls>:
/* Right/left headphone simultaneous volume/mute update
   Valid inputs:
		ENABLED
		DISABLED
*/
void AIC23_head_rls(unsigned int simultaneous_update){
   407f4:	defffd04 	addi	sp,sp,-12
   407f8:	dfc00215 	stw	ra,8(sp)
   407fc:	df000115 	stw	fp,4(sp)
   40800:	df000104 	addi	fp,sp,4
   40804:	e13fff15 	stw	r4,-4(fp)
	aic23_config[3] = (aic23_config[3] & 0x00FF) | (simultaneous_update << 8);
   40808:	00800174 	movhi	r2,5
   4080c:	10935104 	addi	r2,r2,19780
   40810:	10800317 	ldw	r2,12(r2)
   40814:	10c03fcc 	andi	r3,r2,255
   40818:	e0bfff17 	ldw	r2,-4(fp)
   4081c:	1004923a 	slli	r2,r2,8
   40820:	1886b03a 	or	r3,r3,r2
   40824:	00800174 	movhi	r2,5
   40828:	10935104 	addi	r2,r2,19780
   4082c:	10c00315 	stw	r3,12(r2)
	spi_send(0x03, aic23_config[3]);
   40830:	00800174 	movhi	r2,5
   40834:	10935104 	addi	r2,r2,19780
   40838:	10800317 	ldw	r2,12(r2)
   4083c:	010000c4 	movi	r4,3
   40840:	100b883a 	mov	r5,r2
   40844:	004249c0 	call	4249c <spi_send>
}
   40848:	e037883a 	mov	sp,fp
   4084c:	dfc00117 	ldw	ra,4(sp)
   40850:	df000017 	ldw	fp,0(sp)
   40854:	dec00204 	addi	sp,sp,8
   40858:	f800283a 	ret

0004085c <AIC23_head_rzc>:
/* Right Channel Zero-Cross Detect
   Valid inputs:
		ON
		OFF
*/
void AIC23_head_rzc(unsigned int zero){
   4085c:	defffd04 	addi	sp,sp,-12
   40860:	dfc00215 	stw	ra,8(sp)
   40864:	df000115 	stw	fp,4(sp)
   40868:	df000104 	addi	fp,sp,4
   4086c:	e13fff15 	stw	r4,-4(fp)
	aic23_config[3] = (aic23_config[3] & 0x017F) | ((zero & 0x01) << 7);
   40870:	00800174 	movhi	r2,5
   40874:	10935104 	addi	r2,r2,19780
   40878:	10800317 	ldw	r2,12(r2)
   4087c:	10c05fcc 	andi	r3,r2,383
   40880:	e0bfff17 	ldw	r2,-4(fp)
   40884:	100491fa 	slli	r2,r2,7
   40888:	10803fcc 	andi	r2,r2,255
   4088c:	1886b03a 	or	r3,r3,r2
   40890:	00800174 	movhi	r2,5
   40894:	10935104 	addi	r2,r2,19780
   40898:	10c00315 	stw	r3,12(r2)
	spi_send(0x03, aic23_config[3]);
   4089c:	00800174 	movhi	r2,5
   408a0:	10935104 	addi	r2,r2,19780
   408a4:	10800317 	ldw	r2,12(r2)
   408a8:	010000c4 	movi	r4,3
   408ac:	100b883a 	mov	r5,r2
   408b0:	004249c0 	call	4249c <spi_send>
}
   408b4:	e037883a 	mov	sp,fp
   408b8:	dfc00117 	ldw	ra,4(sp)
   408bc:	df000017 	ldw	fp,0(sp)
   408c0:	dec00204 	addi	sp,sp,8
   408c4:	f800283a 	ret

000408c8 <AIC23_head_rhv>:
   Valid Inputs:
   	   0b1111001 = 0dB default
   	   0b1111111 = +6dB down to 0b0110000 = -73dB mute in 1dB increments
   	   Anything lower than -73dB is still mute. 79 steps in between max/min.
 */
void AIC23_head_rhv(unsigned int volume){
   408c8:	defffd04 	addi	sp,sp,-12
   408cc:	dfc00215 	stw	ra,8(sp)
   408d0:	df000115 	stw	fp,4(sp)
   408d4:	df000104 	addi	fp,sp,4
   408d8:	e13fff15 	stw	r4,-4(fp)
	aic23_config[3] = (aic23_config[3] & 0x0180) | volume;
   408dc:	00800174 	movhi	r2,5
   408e0:	10935104 	addi	r2,r2,19780
   408e4:	10800317 	ldw	r2,12(r2)
   408e8:	10c0600c 	andi	r3,r2,384
   408ec:	e0bfff17 	ldw	r2,-4(fp)
   408f0:	1886b03a 	or	r3,r3,r2
   408f4:	00800174 	movhi	r2,5
   408f8:	10935104 	addi	r2,r2,19780
   408fc:	10c00315 	stw	r3,12(r2)
	spi_send(0x03, aic23_config[3]);
   40900:	00800174 	movhi	r2,5
   40904:	10935104 	addi	r2,r2,19780
   40908:	10800317 	ldw	r2,12(r2)
   4090c:	010000c4 	movi	r4,3
   40910:	100b883a 	mov	r5,r2
   40914:	004249c0 	call	4249c <spi_send>
}
   40918:	e037883a 	mov	sp,fp
   4091c:	dfc00117 	ldw	ra,4(sp)
   40920:	df000017 	ldw	fp,0(sp)
   40924:	dec00204 	addi	sp,sp,8
   40928:	f800283a 	ret

0004092c <AIC23_sidetone_disable>:
//
// 					Analog Audio Path Control
//
/////////////////////////////////////////////////////////////////

void AIC23_sidetone_disable(unsigned int sidetone){
   4092c:	defffd04 	addi	sp,sp,-12
   40930:	dfc00215 	stw	ra,8(sp)
   40934:	df000115 	stw	fp,4(sp)
   40938:	df000104 	addi	fp,sp,4
   4093c:	e13fff15 	stw	r4,-4(fp)
	aic23_config[4] = aic23_config[4] & 0x01DF;
   40940:	00800174 	movhi	r2,5
   40944:	10935104 	addi	r2,r2,19780
   40948:	10800417 	ldw	r2,16(r2)
   4094c:	10c077cc 	andi	r3,r2,479
   40950:	00800174 	movhi	r2,5
   40954:	10935104 	addi	r2,r2,19780
   40958:	10c00415 	stw	r3,16(r2)
	spi_send(0x04, aic23_config[4]);
   4095c:	00800174 	movhi	r2,5
   40960:	10935104 	addi	r2,r2,19780
   40964:	10800417 	ldw	r2,16(r2)
   40968:	01000104 	movi	r4,4
   4096c:	100b883a 	mov	r5,r2
   40970:	004249c0 	call	4249c <spi_send>
}
   40974:	e037883a 	mov	sp,fp
   40978:	dfc00117 	ldw	ra,4(sp)
   4097c:	df000017 	ldw	fp,0(sp)
   40980:	dec00204 	addi	sp,sp,8
   40984:	f800283a 	ret

00040988 <AIC23_sidetone_add>:

void AIC23_sidetone_add(unsigned int add){
   40988:	defffd04 	addi	sp,sp,-12
   4098c:	dfc00215 	stw	ra,8(sp)
   40990:	df000115 	stw	fp,4(sp)
   40994:	df000104 	addi	fp,sp,4
   40998:	e13fff15 	stw	r4,-4(fp)
	aic23_config[4] = (aic23_config[4] & 0x1F) | ((add & 0x0F) << 5);
   4099c:	00800174 	movhi	r2,5
   409a0:	10935104 	addi	r2,r2,19780
   409a4:	10800417 	ldw	r2,16(r2)
   409a8:	10c007cc 	andi	r3,r2,31
   409ac:	e0bfff17 	ldw	r2,-4(fp)
   409b0:	108003cc 	andi	r2,r2,15
   409b4:	1004917a 	slli	r2,r2,5
   409b8:	1886b03a 	or	r3,r3,r2
   409bc:	00800174 	movhi	r2,5
   409c0:	10935104 	addi	r2,r2,19780
   409c4:	10c00415 	stw	r3,16(r2)
	spi_send(0x04, aic23_config[4]);
   409c8:	00800174 	movhi	r2,5
   409cc:	10935104 	addi	r2,r2,19780
   409d0:	10800417 	ldw	r2,16(r2)
   409d4:	01000104 	movi	r4,4
   409d8:	100b883a 	mov	r5,r2
   409dc:	004249c0 	call	4249c <spi_send>
}
   409e0:	e037883a 	mov	sp,fp
   409e4:	dfc00117 	ldw	ra,4(sp)
   409e8:	df000017 	ldw	fp,0(sp)
   409ec:	dec00204 	addi	sp,sp,8
   409f0:	f800283a 	ret

000409f4 <AIC23_dac_select>:

void AIC23_dac_select(unsigned int dac){
   409f4:	defffd04 	addi	sp,sp,-12
   409f8:	dfc00215 	stw	ra,8(sp)
   409fc:	df000115 	stw	fp,4(sp)
   40a00:	df000104 	addi	fp,sp,4
   40a04:	e13fff15 	stw	r4,-4(fp)
	aic23_config[4] = (aic23_config[4] & 0x1EF) | ((dac & 0x01) << 4);
   40a08:	00800174 	movhi	r2,5
   40a0c:	10935104 	addi	r2,r2,19780
   40a10:	10800417 	ldw	r2,16(r2)
   40a14:	10c07bcc 	andi	r3,r2,495
   40a18:	e0bfff17 	ldw	r2,-4(fp)
   40a1c:	1080004c 	andi	r2,r2,1
   40a20:	1004913a 	slli	r2,r2,4
   40a24:	1886b03a 	or	r3,r3,r2
   40a28:	00800174 	movhi	r2,5
   40a2c:	10935104 	addi	r2,r2,19780
   40a30:	10c00415 	stw	r3,16(r2)
	spi_send(0x04, aic23_config[4]);
   40a34:	00800174 	movhi	r2,5
   40a38:	10935104 	addi	r2,r2,19780
   40a3c:	10800417 	ldw	r2,16(r2)
   40a40:	01000104 	movi	r4,4
   40a44:	100b883a 	mov	r5,r2
   40a48:	004249c0 	call	4249c <spi_send>
}
   40a4c:	e037883a 	mov	sp,fp
   40a50:	dfc00117 	ldw	ra,4(sp)
   40a54:	df000017 	ldw	fp,0(sp)
   40a58:	dec00204 	addi	sp,sp,8
   40a5c:	f800283a 	ret

00040a60 <AIC23_bypass>:
/* Bypass
   Valid Inputs:
   	   ENABLED
   	   DISABLED
 */
void AIC23_bypass(unsigned int bypass){
   40a60:	defffd04 	addi	sp,sp,-12
   40a64:	dfc00215 	stw	ra,8(sp)
   40a68:	df000115 	stw	fp,4(sp)
   40a6c:	df000104 	addi	fp,sp,4
   40a70:	e13fff15 	stw	r4,-4(fp)
	aic23_config[4] = (aic23_config[4] & 0x1F7) | ((bypass & 0x01) << 3);
   40a74:	00800174 	movhi	r2,5
   40a78:	10935104 	addi	r2,r2,19780
   40a7c:	10800417 	ldw	r2,16(r2)
   40a80:	10c07dcc 	andi	r3,r2,503
   40a84:	e0bfff17 	ldw	r2,-4(fp)
   40a88:	1080004c 	andi	r2,r2,1
   40a8c:	100490fa 	slli	r2,r2,3
   40a90:	1886b03a 	or	r3,r3,r2
   40a94:	00800174 	movhi	r2,5
   40a98:	10935104 	addi	r2,r2,19780
   40a9c:	10c00415 	stw	r3,16(r2)
	spi_send(0x04, aic23_config[4]);
   40aa0:	00800174 	movhi	r2,5
   40aa4:	10935104 	addi	r2,r2,19780
   40aa8:	10800417 	ldw	r2,16(r2)
   40aac:	01000104 	movi	r4,4
   40ab0:	100b883a 	mov	r5,r2
   40ab4:	004249c0 	call	4249c <spi_send>
}
   40ab8:	e037883a 	mov	sp,fp
   40abc:	dfc00117 	ldw	ra,4(sp)
   40ac0:	df000017 	ldw	fp,0(sp)
   40ac4:	dec00204 	addi	sp,sp,8
   40ac8:	f800283a 	ret

00040acc <AIC23_input>:

void AIC23_input(unsigned int input){
   40acc:	defffd04 	addi	sp,sp,-12
   40ad0:	dfc00215 	stw	ra,8(sp)
   40ad4:	df000115 	stw	fp,4(sp)
   40ad8:	df000104 	addi	fp,sp,4
   40adc:	e13fff15 	stw	r4,-4(fp)
	aic23_config[4] = (aic23_config[4] & 0x1FB) | ((input & 0x01) << 2);
   40ae0:	00800174 	movhi	r2,5
   40ae4:	10935104 	addi	r2,r2,19780
   40ae8:	10800417 	ldw	r2,16(r2)
   40aec:	10c07ecc 	andi	r3,r2,507
   40af0:	e0bfff17 	ldw	r2,-4(fp)
   40af4:	1080004c 	andi	r2,r2,1
   40af8:	1085883a 	add	r2,r2,r2
   40afc:	1085883a 	add	r2,r2,r2
   40b00:	1886b03a 	or	r3,r3,r2
   40b04:	00800174 	movhi	r2,5
   40b08:	10935104 	addi	r2,r2,19780
   40b0c:	10c00415 	stw	r3,16(r2)
	spi_send(0x04, aic23_config[4]);
   40b10:	00800174 	movhi	r2,5
   40b14:	10935104 	addi	r2,r2,19780
   40b18:	10800417 	ldw	r2,16(r2)
   40b1c:	01000104 	movi	r4,4
   40b20:	100b883a 	mov	r5,r2
   40b24:	004249c0 	call	4249c <spi_send>
}
   40b28:	e037883a 	mov	sp,fp
   40b2c:	dfc00117 	ldw	ra,4(sp)
   40b30:	df000017 	ldw	fp,0(sp)
   40b34:	dec00204 	addi	sp,sp,8
   40b38:	f800283a 	ret

00040b3c <AIC23_mic_mute>:

void AIC23_mic_mute(unsigned int mute){
   40b3c:	defffd04 	addi	sp,sp,-12
   40b40:	dfc00215 	stw	ra,8(sp)
   40b44:	df000115 	stw	fp,4(sp)
   40b48:	df000104 	addi	fp,sp,4
   40b4c:	e13fff15 	stw	r4,-4(fp)
	aic23_config[4] = (aic23_config[4] & 0x1FD) | ((mute & 0x01) << 2);
   40b50:	00800174 	movhi	r2,5
   40b54:	10935104 	addi	r2,r2,19780
   40b58:	10800417 	ldw	r2,16(r2)
   40b5c:	10c07f4c 	andi	r3,r2,509
   40b60:	e0bfff17 	ldw	r2,-4(fp)
   40b64:	1080004c 	andi	r2,r2,1
   40b68:	1085883a 	add	r2,r2,r2
   40b6c:	1085883a 	add	r2,r2,r2
   40b70:	1886b03a 	or	r3,r3,r2
   40b74:	00800174 	movhi	r2,5
   40b78:	10935104 	addi	r2,r2,19780
   40b7c:	10c00415 	stw	r3,16(r2)
	spi_send(0x04, aic23_config[4]);
   40b80:	00800174 	movhi	r2,5
   40b84:	10935104 	addi	r2,r2,19780
   40b88:	10800417 	ldw	r2,16(r2)
   40b8c:	01000104 	movi	r4,4
   40b90:	100b883a 	mov	r5,r2
   40b94:	004249c0 	call	4249c <spi_send>
}
   40b98:	e037883a 	mov	sp,fp
   40b9c:	dfc00117 	ldw	ra,4(sp)
   40ba0:	df000017 	ldw	fp,0(sp)
   40ba4:	dec00204 	addi	sp,sp,8
   40ba8:	f800283a 	ret

00040bac <AIC23_mic_boost>:

void AIC23_mic_boost(unsigned int boost){
   40bac:	defffd04 	addi	sp,sp,-12
   40bb0:	dfc00215 	stw	ra,8(sp)
   40bb4:	df000115 	stw	fp,4(sp)
   40bb8:	df000104 	addi	fp,sp,4
   40bbc:	e13fff15 	stw	r4,-4(fp)
	aic23_config[4] = (aic23_config[4] & 0x1FE) | (boost & 0x01);
   40bc0:	00800174 	movhi	r2,5
   40bc4:	10935104 	addi	r2,r2,19780
   40bc8:	10800417 	ldw	r2,16(r2)
   40bcc:	10c07f8c 	andi	r3,r2,510
   40bd0:	e0bfff17 	ldw	r2,-4(fp)
   40bd4:	1080004c 	andi	r2,r2,1
   40bd8:	1886b03a 	or	r3,r3,r2
   40bdc:	00800174 	movhi	r2,5
   40be0:	10935104 	addi	r2,r2,19780
   40be4:	10c00415 	stw	r3,16(r2)
	spi_send(0x04, aic23_config[4]);
   40be8:	00800174 	movhi	r2,5
   40bec:	10935104 	addi	r2,r2,19780
   40bf0:	10800417 	ldw	r2,16(r2)
   40bf4:	01000104 	movi	r4,4
   40bf8:	100b883a 	mov	r5,r2
   40bfc:	004249c0 	call	4249c <spi_send>
}
   40c00:	e037883a 	mov	sp,fp
   40c04:	dfc00117 	ldw	ra,4(sp)
   40c08:	df000017 	ldw	fp,0(sp)
   40c0c:	dec00204 	addi	sp,sp,8
   40c10:	f800283a 	ret

00040c14 <AIC23_dac_mute>:
//
// 					Digital Audio Path Control
//
/////////////////////////////////////////////////////////////////

void AIC23_dac_mute(unsigned int mute){
   40c14:	defffd04 	addi	sp,sp,-12
   40c18:	dfc00215 	stw	ra,8(sp)
   40c1c:	df000115 	stw	fp,4(sp)
   40c20:	df000104 	addi	fp,sp,4
   40c24:	e13fff15 	stw	r4,-4(fp)
	aic23_config[5] = (aic23_config[5] & 0x1F7) | ((mute & 0x01) << 3);
   40c28:	00800174 	movhi	r2,5
   40c2c:	10935104 	addi	r2,r2,19780
   40c30:	10800517 	ldw	r2,20(r2)
   40c34:	10c07dcc 	andi	r3,r2,503
   40c38:	e0bfff17 	ldw	r2,-4(fp)
   40c3c:	1080004c 	andi	r2,r2,1
   40c40:	100490fa 	slli	r2,r2,3
   40c44:	1886b03a 	or	r3,r3,r2
   40c48:	00800174 	movhi	r2,5
   40c4c:	10935104 	addi	r2,r2,19780
   40c50:	10c00515 	stw	r3,20(r2)
	spi_send(0x05, aic23_config[5]);
   40c54:	00800174 	movhi	r2,5
   40c58:	10935104 	addi	r2,r2,19780
   40c5c:	10800517 	ldw	r2,20(r2)
   40c60:	01000144 	movi	r4,5
   40c64:	100b883a 	mov	r5,r2
   40c68:	004249c0 	call	4249c <spi_send>
}
   40c6c:	e037883a 	mov	sp,fp
   40c70:	dfc00117 	ldw	ra,4(sp)
   40c74:	df000017 	ldw	fp,0(sp)
   40c78:	dec00204 	addi	sp,sp,8
   40c7c:	f800283a 	ret

00040c80 <AIC23_deemp>:

void AIC23_deemp(unsigned int deemphasis){
   40c80:	defffd04 	addi	sp,sp,-12
   40c84:	dfc00215 	stw	ra,8(sp)
   40c88:	df000115 	stw	fp,4(sp)
   40c8c:	df000104 	addi	fp,sp,4
   40c90:	e13fff15 	stw	r4,-4(fp)
	aic23_config[5] = (aic23_config[5] & 0x01F9) | ((deemphasis & 0x03) << 1);
   40c94:	00800174 	movhi	r2,5
   40c98:	10935104 	addi	r2,r2,19780
   40c9c:	10800517 	ldw	r2,20(r2)
   40ca0:	10c07e4c 	andi	r3,r2,505
   40ca4:	e0bfff17 	ldw	r2,-4(fp)
   40ca8:	108000cc 	andi	r2,r2,3
   40cac:	1085883a 	add	r2,r2,r2
   40cb0:	1886b03a 	or	r3,r3,r2
   40cb4:	00800174 	movhi	r2,5
   40cb8:	10935104 	addi	r2,r2,19780
   40cbc:	10c00515 	stw	r3,20(r2)
	spi_send(0x05, aic23_config[5]);
   40cc0:	00800174 	movhi	r2,5
   40cc4:	10935104 	addi	r2,r2,19780
   40cc8:	10800517 	ldw	r2,20(r2)
   40ccc:	01000144 	movi	r4,5
   40cd0:	100b883a 	mov	r5,r2
   40cd4:	004249c0 	call	4249c <spi_send>
}
   40cd8:	e037883a 	mov	sp,fp
   40cdc:	dfc00117 	ldw	ra,4(sp)
   40ce0:	df000017 	ldw	fp,0(sp)
   40ce4:	dec00204 	addi	sp,sp,8
   40ce8:	f800283a 	ret

00040cec <AIC23_adc_highpass>:

void AIC23_adc_highpass(unsigned int highpass){
   40cec:	defffd04 	addi	sp,sp,-12
   40cf0:	dfc00215 	stw	ra,8(sp)
   40cf4:	df000115 	stw	fp,4(sp)
   40cf8:	df000104 	addi	fp,sp,4
   40cfc:	e13fff15 	stw	r4,-4(fp)
	aic23_config[5] = (aic23_config[5] & 0x01FE) | (highpass & 0x01);
   40d00:	00800174 	movhi	r2,5
   40d04:	10935104 	addi	r2,r2,19780
   40d08:	10800517 	ldw	r2,20(r2)
   40d0c:	10c07f8c 	andi	r3,r2,510
   40d10:	e0bfff17 	ldw	r2,-4(fp)
   40d14:	1080004c 	andi	r2,r2,1
   40d18:	1886b03a 	or	r3,r3,r2
   40d1c:	00800174 	movhi	r2,5
   40d20:	10935104 	addi	r2,r2,19780
   40d24:	10c00515 	stw	r3,20(r2)
	spi_send(0x05, aic23_config[5]);
   40d28:	00800174 	movhi	r2,5
   40d2c:	10935104 	addi	r2,r2,19780
   40d30:	10800517 	ldw	r2,20(r2)
   40d34:	01000144 	movi	r4,5
   40d38:	100b883a 	mov	r5,r2
   40d3c:	004249c0 	call	4249c <spi_send>
}
   40d40:	e037883a 	mov	sp,fp
   40d44:	dfc00117 	ldw	ra,4(sp)
   40d48:	df000017 	ldw	fp,0(sp)
   40d4c:	dec00204 	addi	sp,sp,8
   40d50:	f800283a 	ret

00040d54 <AIC23_power_on>:
//
// 						Power Down Control
//
/////////////////////////////////////////////////////////////////

void AIC23_power_on(){
   40d54:	defffe04 	addi	sp,sp,-8
   40d58:	dfc00115 	stw	ra,4(sp)
   40d5c:	df000015 	stw	fp,0(sp)
   40d60:	d839883a 	mov	fp,sp
	aic23_config[6] = 0x00;
   40d64:	00800174 	movhi	r2,5
   40d68:	10935104 	addi	r2,r2,19780
   40d6c:	10000615 	stw	zero,24(r2)
	spi_send(0x06, aic23_config[6]);
   40d70:	00800174 	movhi	r2,5
   40d74:	10935104 	addi	r2,r2,19780
   40d78:	10800617 	ldw	r2,24(r2)
   40d7c:	01000184 	movi	r4,6
   40d80:	100b883a 	mov	r5,r2
   40d84:	004249c0 	call	4249c <spi_send>
}
   40d88:	e037883a 	mov	sp,fp
   40d8c:	dfc00117 	ldw	ra,4(sp)
   40d90:	df000017 	ldw	fp,0(sp)
   40d94:	dec00204 	addi	sp,sp,8
   40d98:	f800283a 	ret

00040d9c <AIC23_power_off>:

void AIC23_power_off(){
   40d9c:	defffe04 	addi	sp,sp,-8
   40da0:	dfc00115 	stw	ra,4(sp)
   40da4:	df000015 	stw	fp,0(sp)
   40da8:	d839883a 	mov	fp,sp
	aic23_config[6] = 0xFF;
   40dac:	00800174 	movhi	r2,5
   40db0:	10935104 	addi	r2,r2,19780
   40db4:	00c03fc4 	movi	r3,255
   40db8:	10c00615 	stw	r3,24(r2)
	spi_send(0x06, aic23_config[6]);
   40dbc:	00800174 	movhi	r2,5
   40dc0:	10935104 	addi	r2,r2,19780
   40dc4:	10800617 	ldw	r2,24(r2)
   40dc8:	01000184 	movi	r4,6
   40dcc:	100b883a 	mov	r5,r2
   40dd0:	004249c0 	call	4249c <spi_send>
}
   40dd4:	e037883a 	mov	sp,fp
   40dd8:	dfc00117 	ldw	ra,4(sp)
   40ddc:	df000017 	ldw	fp,0(sp)
   40de0:	dec00204 	addi	sp,sp,8
   40de4:	f800283a 	ret

00040de8 <AIC23_mode>:
//
// 				Digital Audio Interface Format
//
/////////////////////////////////////////////////////////////////

void AIC23_mode(unsigned int mode){
   40de8:	defffd04 	addi	sp,sp,-12
   40dec:	dfc00215 	stw	ra,8(sp)
   40df0:	df000115 	stw	fp,4(sp)
   40df4:	df000104 	addi	fp,sp,4
   40df8:	e13fff15 	stw	r4,-4(fp)
	aic23_config[7] = (aic23_config[7] & 0x01BF) | ((mode & 0x01) << 6);
   40dfc:	00800174 	movhi	r2,5
   40e00:	10935104 	addi	r2,r2,19780
   40e04:	10800717 	ldw	r2,28(r2)
   40e08:	10c06fcc 	andi	r3,r2,447
   40e0c:	e0bfff17 	ldw	r2,-4(fp)
   40e10:	1080004c 	andi	r2,r2,1
   40e14:	100491ba 	slli	r2,r2,6
   40e18:	1886b03a 	or	r3,r3,r2
   40e1c:	00800174 	movhi	r2,5
   40e20:	10935104 	addi	r2,r2,19780
   40e24:	10c00715 	stw	r3,28(r2)
	spi_send(0x07, aic23_config[7]);
   40e28:	00800174 	movhi	r2,5
   40e2c:	10935104 	addi	r2,r2,19780
   40e30:	10800717 	ldw	r2,28(r2)
   40e34:	010001c4 	movi	r4,7
   40e38:	100b883a 	mov	r5,r2
   40e3c:	004249c0 	call	4249c <spi_send>
}
   40e40:	e037883a 	mov	sp,fp
   40e44:	dfc00117 	ldw	ra,4(sp)
   40e48:	df000017 	ldw	fp,0(sp)
   40e4c:	dec00204 	addi	sp,sp,8
   40e50:	f800283a 	ret

00040e54 <AIC23_lr_swap>:

void AIC23_lr_swap(unsigned int swap){
   40e54:	defffd04 	addi	sp,sp,-12
   40e58:	dfc00215 	stw	ra,8(sp)
   40e5c:	df000115 	stw	fp,4(sp)
   40e60:	df000104 	addi	fp,sp,4
   40e64:	e13fff15 	stw	r4,-4(fp)
	aic23_config[7] = (aic23_config[7] & 0x01DF) | ((swap & 0x01) << 5);
   40e68:	00800174 	movhi	r2,5
   40e6c:	10935104 	addi	r2,r2,19780
   40e70:	10800717 	ldw	r2,28(r2)
   40e74:	10c077cc 	andi	r3,r2,479
   40e78:	e0bfff17 	ldw	r2,-4(fp)
   40e7c:	1080004c 	andi	r2,r2,1
   40e80:	1004917a 	slli	r2,r2,5
   40e84:	1886b03a 	or	r3,r3,r2
   40e88:	00800174 	movhi	r2,5
   40e8c:	10935104 	addi	r2,r2,19780
   40e90:	10c00715 	stw	r3,28(r2)
	spi_send(0x07, aic23_config[7]);
   40e94:	00800174 	movhi	r2,5
   40e98:	10935104 	addi	r2,r2,19780
   40e9c:	10800717 	ldw	r2,28(r2)
   40ea0:	010001c4 	movi	r4,7
   40ea4:	100b883a 	mov	r5,r2
   40ea8:	004249c0 	call	4249c <spi_send>

}
   40eac:	e037883a 	mov	sp,fp
   40eb0:	dfc00117 	ldw	ra,4(sp)
   40eb4:	df000017 	ldw	fp,0(sp)
   40eb8:	dec00204 	addi	sp,sp,8
   40ebc:	f800283a 	ret

00040ec0 <AIC23_lr_phase>:

void AIC23_lr_phase(unsigned int phase){
   40ec0:	defffd04 	addi	sp,sp,-12
   40ec4:	dfc00215 	stw	ra,8(sp)
   40ec8:	df000115 	stw	fp,4(sp)
   40ecc:	df000104 	addi	fp,sp,4
   40ed0:	e13fff15 	stw	r4,-4(fp)
	aic23_config[7] = (aic23_config[7] & 0x01EF) | ((phase & 0x01) << 4);
   40ed4:	00800174 	movhi	r2,5
   40ed8:	10935104 	addi	r2,r2,19780
   40edc:	10800717 	ldw	r2,28(r2)
   40ee0:	10c07bcc 	andi	r3,r2,495
   40ee4:	e0bfff17 	ldw	r2,-4(fp)
   40ee8:	1080004c 	andi	r2,r2,1
   40eec:	1004913a 	slli	r2,r2,4
   40ef0:	1886b03a 	or	r3,r3,r2
   40ef4:	00800174 	movhi	r2,5
   40ef8:	10935104 	addi	r2,r2,19780
   40efc:	10c00715 	stw	r3,28(r2)
	spi_send(0x07, aic23_config[7]);
   40f00:	00800174 	movhi	r2,5
   40f04:	10935104 	addi	r2,r2,19780
   40f08:	10800717 	ldw	r2,28(r2)
   40f0c:	010001c4 	movi	r4,7
   40f10:	100b883a 	mov	r5,r2
   40f14:	004249c0 	call	4249c <spi_send>
}
   40f18:	e037883a 	mov	sp,fp
   40f1c:	dfc00117 	ldw	ra,4(sp)
   40f20:	df000017 	ldw	fp,0(sp)
   40f24:	dec00204 	addi	sp,sp,8
   40f28:	f800283a 	ret

00040f2c <AIC23_input_len>:

void AIC23_input_len(unsigned int length){
   40f2c:	defffd04 	addi	sp,sp,-12
   40f30:	dfc00215 	stw	ra,8(sp)
   40f34:	df000115 	stw	fp,4(sp)
   40f38:	df000104 	addi	fp,sp,4
   40f3c:	e13fff15 	stw	r4,-4(fp)
	aic23_config[7] = (aic23_config[7] & 0x01F3) | ((length & 0x03) << 2);
   40f40:	00800174 	movhi	r2,5
   40f44:	10935104 	addi	r2,r2,19780
   40f48:	10800717 	ldw	r2,28(r2)
   40f4c:	10c07ccc 	andi	r3,r2,499
   40f50:	e0bfff17 	ldw	r2,-4(fp)
   40f54:	108000cc 	andi	r2,r2,3
   40f58:	1085883a 	add	r2,r2,r2
   40f5c:	1085883a 	add	r2,r2,r2
   40f60:	1886b03a 	or	r3,r3,r2
   40f64:	00800174 	movhi	r2,5
   40f68:	10935104 	addi	r2,r2,19780
   40f6c:	10c00715 	stw	r3,28(r2)
	spi_send(0x07, aic23_config[7]);
   40f70:	00800174 	movhi	r2,5
   40f74:	10935104 	addi	r2,r2,19780
   40f78:	10800717 	ldw	r2,28(r2)
   40f7c:	010001c4 	movi	r4,7
   40f80:	100b883a 	mov	r5,r2
   40f84:	004249c0 	call	4249c <spi_send>
}
   40f88:	e037883a 	mov	sp,fp
   40f8c:	dfc00117 	ldw	ra,4(sp)
   40f90:	df000017 	ldw	fp,0(sp)
   40f94:	dec00204 	addi	sp,sp,8
   40f98:	f800283a 	ret

00040f9c <AIC23_format>:

void AIC23_format(unsigned int format){
   40f9c:	defffd04 	addi	sp,sp,-12
   40fa0:	dfc00215 	stw	ra,8(sp)
   40fa4:	df000115 	stw	fp,4(sp)
   40fa8:	df000104 	addi	fp,sp,4
   40fac:	e13fff15 	stw	r4,-4(fp)
	aic23_config[7] = (aic23_config[7] & 0x01FC) | (format & 0x03);
   40fb0:	00800174 	movhi	r2,5
   40fb4:	10935104 	addi	r2,r2,19780
   40fb8:	10800717 	ldw	r2,28(r2)
   40fbc:	10c07f0c 	andi	r3,r2,508
   40fc0:	e0bfff17 	ldw	r2,-4(fp)
   40fc4:	108000cc 	andi	r2,r2,3
   40fc8:	1886b03a 	or	r3,r3,r2
   40fcc:	00800174 	movhi	r2,5
   40fd0:	10935104 	addi	r2,r2,19780
   40fd4:	10c00715 	stw	r3,28(r2)
	spi_send(0x07, aic23_config[7]);
   40fd8:	00800174 	movhi	r2,5
   40fdc:	10935104 	addi	r2,r2,19780
   40fe0:	10800717 	ldw	r2,28(r2)
   40fe4:	010001c4 	movi	r4,7
   40fe8:	100b883a 	mov	r5,r2
   40fec:	004249c0 	call	4249c <spi_send>
}
   40ff0:	e037883a 	mov	sp,fp
   40ff4:	dfc00117 	ldw	ra,4(sp)
   40ff8:	df000017 	ldw	fp,0(sp)
   40ffc:	dec00204 	addi	sp,sp,8
   41000:	f800283a 	ret

00041004 <AIC23_clkin>:
//
// 						Sample Rate Control
//
/////////////////////////////////////////////////////////////////

void AIC23_clkin(unsigned int clock){
   41004:	defffd04 	addi	sp,sp,-12
   41008:	dfc00215 	stw	ra,8(sp)
   4100c:	df000115 	stw	fp,4(sp)
   41010:	df000104 	addi	fp,sp,4
   41014:	e13fff15 	stw	r4,-4(fp)
	aic23_config[8] = (aic23_config[8] & 0x01BF) | ((clock & 0x01) << 6);
   41018:	00800174 	movhi	r2,5
   4101c:	10935104 	addi	r2,r2,19780
   41020:	10800817 	ldw	r2,32(r2)
   41024:	10c06fcc 	andi	r3,r2,447
   41028:	e0bfff17 	ldw	r2,-4(fp)
   4102c:	1080004c 	andi	r2,r2,1
   41030:	100491ba 	slli	r2,r2,6
   41034:	1886b03a 	or	r3,r3,r2
   41038:	00800174 	movhi	r2,5
   4103c:	10935104 	addi	r2,r2,19780
   41040:	10c00815 	stw	r3,32(r2)
	spi_send(0x08, aic23_config[8]);
   41044:	00800174 	movhi	r2,5
   41048:	10935104 	addi	r2,r2,19780
   4104c:	10800817 	ldw	r2,32(r2)
   41050:	01000204 	movi	r4,8
   41054:	100b883a 	mov	r5,r2
   41058:	004249c0 	call	4249c <spi_send>
}
   4105c:	e037883a 	mov	sp,fp
   41060:	dfc00117 	ldw	ra,4(sp)
   41064:	df000017 	ldw	fp,0(sp)
   41068:	dec00204 	addi	sp,sp,8
   4106c:	f800283a 	ret

00041070 <AIC23_clkout>:

void AIC23_clkout(unsigned int clock){
   41070:	defffd04 	addi	sp,sp,-12
   41074:	dfc00215 	stw	ra,8(sp)
   41078:	df000115 	stw	fp,4(sp)
   4107c:	df000104 	addi	fp,sp,4
   41080:	e13fff15 	stw	r4,-4(fp)
	aic23_config[8] = (aic23_config[8] & 0x017F) | ((clock & 0x01) << 7);
   41084:	00800174 	movhi	r2,5
   41088:	10935104 	addi	r2,r2,19780
   4108c:	10800817 	ldw	r2,32(r2)
   41090:	10c05fcc 	andi	r3,r2,383
   41094:	e0bfff17 	ldw	r2,-4(fp)
   41098:	100491fa 	slli	r2,r2,7
   4109c:	10803fcc 	andi	r2,r2,255
   410a0:	1886b03a 	or	r3,r3,r2
   410a4:	00800174 	movhi	r2,5
   410a8:	10935104 	addi	r2,r2,19780
   410ac:	10c00815 	stw	r3,32(r2)
	spi_send(0x08, aic23_config[8]);
   410b0:	00800174 	movhi	r2,5
   410b4:	10935104 	addi	r2,r2,19780
   410b8:	10800817 	ldw	r2,32(r2)
   410bc:	01000204 	movi	r4,8
   410c0:	100b883a 	mov	r5,r2
   410c4:	004249c0 	call	4249c <spi_send>
}
   410c8:	e037883a 	mov	sp,fp
   410cc:	dfc00117 	ldw	ra,4(sp)
   410d0:	df000017 	ldw	fp,0(sp)
   410d4:	dec00204 	addi	sp,sp,8
   410d8:	f800283a 	ret

000410dc <AIC23_setFreq>:
	 AIC23_FREQ_32KHZ 0x0c	// 32000 Hz
	 AIC23_FREQ_44KHZ 0x11	// 44100 Hz
	 AIC23_FREQ_48KHZ 0x00	// 48000 Hz
	 AIC23_FREQ_96KHZ 0x0e	// 96000 Hz
 */
void AIC23_setFreq(unsigned int frequency){
   410dc:	defffd04 	addi	sp,sp,-12
   410e0:	dfc00215 	stw	ra,8(sp)
   410e4:	df000115 	stw	fp,4(sp)
   410e8:	df000104 	addi	fp,sp,4
   410ec:	e13fff15 	stw	r4,-4(fp)
	aic23_config[8] = (aic23_config[8] & 0x1C3) | ((frequency & 0x0F) << 2);
   410f0:	00800174 	movhi	r2,5
   410f4:	10935104 	addi	r2,r2,19780
   410f8:	10800817 	ldw	r2,32(r2)
   410fc:	10c070cc 	andi	r3,r2,451
   41100:	e0bfff17 	ldw	r2,-4(fp)
   41104:	108003cc 	andi	r2,r2,15
   41108:	1085883a 	add	r2,r2,r2
   4110c:	1085883a 	add	r2,r2,r2
   41110:	1886b03a 	or	r3,r3,r2
   41114:	00800174 	movhi	r2,5
   41118:	10935104 	addi	r2,r2,19780
   4111c:	10c00815 	stw	r3,32(r2)
	spi_send(0x08, aic23_config[8]);
   41120:	00800174 	movhi	r2,5
   41124:	10935104 	addi	r2,r2,19780
   41128:	10800817 	ldw	r2,32(r2)
   4112c:	01000204 	movi	r4,8
   41130:	100b883a 	mov	r5,r2
   41134:	004249c0 	call	4249c <spi_send>
}
   41138:	e037883a 	mov	sp,fp
   4113c:	dfc00117 	ldw	ra,4(sp)
   41140:	df000017 	ldw	fp,0(sp)
   41144:	dec00204 	addi	sp,sp,8
   41148:	f800283a 	ret

0004114c <AIC23_bosr>:

void AIC23_bosr(unsigned int frequency){
   4114c:	defffd04 	addi	sp,sp,-12
   41150:	dfc00215 	stw	ra,8(sp)
   41154:	df000115 	stw	fp,4(sp)
   41158:	df000104 	addi	fp,sp,4
   4115c:	e13fff15 	stw	r4,-4(fp)
	aic23_config[8] = (aic23_config[8] & 0x1FD) | ((frequency & 0x01) << 1);
   41160:	00800174 	movhi	r2,5
   41164:	10935104 	addi	r2,r2,19780
   41168:	10800817 	ldw	r2,32(r2)
   4116c:	10c07f4c 	andi	r3,r2,509
   41170:	e0bfff17 	ldw	r2,-4(fp)
   41174:	1080004c 	andi	r2,r2,1
   41178:	1085883a 	add	r2,r2,r2
   4117c:	1886b03a 	or	r3,r3,r2
   41180:	00800174 	movhi	r2,5
   41184:	10935104 	addi	r2,r2,19780
   41188:	10c00815 	stw	r3,32(r2)
	spi_send(0x08, aic23_config[8]);
   4118c:	00800174 	movhi	r2,5
   41190:	10935104 	addi	r2,r2,19780
   41194:	10800817 	ldw	r2,32(r2)
   41198:	01000204 	movi	r4,8
   4119c:	100b883a 	mov	r5,r2
   411a0:	004249c0 	call	4249c <spi_send>
}
   411a4:	e037883a 	mov	sp,fp
   411a8:	dfc00117 	ldw	ra,4(sp)
   411ac:	df000017 	ldw	fp,0(sp)
   411b0:	dec00204 	addi	sp,sp,8
   411b4:	f800283a 	ret

000411b8 <AIC23_clk_mode>:

void AIC23_clk_mode(unsigned int mode){
   411b8:	defffd04 	addi	sp,sp,-12
   411bc:	dfc00215 	stw	ra,8(sp)
   411c0:	df000115 	stw	fp,4(sp)
   411c4:	df000104 	addi	fp,sp,4
   411c8:	e13fff15 	stw	r4,-4(fp)
	aic23_config[8] = (aic23_config[8] & 0x1FE) | (mode & 0x01);
   411cc:	00800174 	movhi	r2,5
   411d0:	10935104 	addi	r2,r2,19780
   411d4:	10800817 	ldw	r2,32(r2)
   411d8:	10c07f8c 	andi	r3,r2,510
   411dc:	e0bfff17 	ldw	r2,-4(fp)
   411e0:	1080004c 	andi	r2,r2,1
   411e4:	1886b03a 	or	r3,r3,r2
   411e8:	00800174 	movhi	r2,5
   411ec:	10935104 	addi	r2,r2,19780
   411f0:	10c00815 	stw	r3,32(r2)
	spi_send(0x08, aic23_config[8]);
   411f4:	00800174 	movhi	r2,5
   411f8:	10935104 	addi	r2,r2,19780
   411fc:	10800817 	ldw	r2,32(r2)
   41200:	01000204 	movi	r4,8
   41204:	100b883a 	mov	r5,r2
   41208:	004249c0 	call	4249c <spi_send>
}
   4120c:	e037883a 	mov	sp,fp
   41210:	dfc00117 	ldw	ra,4(sp)
   41214:	df000017 	ldw	fp,0(sp)
   41218:	dec00204 	addi	sp,sp,8
   4121c:	f800283a 	ret

00041220 <AIC23_on>:
// 					Digital Interface Activation
//
/////////////////////////////////////////////////////////////////

// Turns the AIC23 on
void AIC23_on(){
   41220:	defffe04 	addi	sp,sp,-8
   41224:	dfc00115 	stw	ra,4(sp)
   41228:	df000015 	stw	fp,0(sp)
   4122c:	d839883a 	mov	fp,sp
	spi_send(0x06, 0x00);
   41230:	01000184 	movi	r4,6
   41234:	000b883a 	mov	r5,zero
   41238:	004249c0 	call	4249c <spi_send>
}
   4123c:	e037883a 	mov	sp,fp
   41240:	dfc00117 	ldw	ra,4(sp)
   41244:	df000017 	ldw	fp,0(sp)
   41248:	dec00204 	addi	sp,sp,8
   4124c:	f800283a 	ret

00041250 <AIC23_off>:

// Turns the AIC23 off
void AIC23_off(){
   41250:	defffe04 	addi	sp,sp,-8
   41254:	dfc00115 	stw	ra,4(sp)
   41258:	df000015 	stw	fp,0(sp)
   4125c:	d839883a 	mov	fp,sp
	spi_send(0x06, 0x80);
   41260:	01000184 	movi	r4,6
   41264:	01402004 	movi	r5,128
   41268:	004249c0 	call	4249c <spi_send>
}
   4126c:	e037883a 	mov	sp,fp
   41270:	dfc00117 	ldw	ra,4(sp)
   41274:	df000017 	ldw	fp,0(sp)
   41278:	dec00204 	addi	sp,sp,8
   4127c:	f800283a 	ret

00041280 <delay>:
   41280:	defffc04 	addi	sp,sp,-16
   41284:	df000315 	stw	fp,12(sp)
   41288:	df000304 	addi	fp,sp,12
   4128c:	e13fff15 	stw	r4,-4(fp)
   41290:	e03ffe15 	stw	zero,-8(fp)
   41294:	e03ffd15 	stw	zero,-12(fp)
   41298:	e03ffe15 	stw	zero,-8(fp)
   4129c:	00000606 	br	412b8 <delay+0x38>
   412a0:	e0bffd17 	ldw	r2,-12(fp)
   412a4:	10800044 	addi	r2,r2,1
   412a8:	e0bffd15 	stw	r2,-12(fp)
   412ac:	e0bffe17 	ldw	r2,-8(fp)
   412b0:	10800044 	addi	r2,r2,1
   412b4:	e0bffe15 	stw	r2,-8(fp)
   412b8:	e0fffe17 	ldw	r3,-8(fp)
   412bc:	e0bfff17 	ldw	r2,-4(fp)
   412c0:	18bff716 	blt	r3,r2,412a0 <__alt_data_end+0xfffcf2a0>
   412c4:	e037883a 	mov	sp,fp
   412c8:	df000017 	ldw	fp,0(sp)
   412cc:	dec00104 	addi	sp,sp,4
   412d0:	f800283a 	ret

000412d4 <I2S_collect_left>:
#include <stdio.h>
#include "altera_avalon_pio_regs.h"
#include "system.h"
#include "delay.h"

int I2S_collect_left(){
   412d4:	defffc04 	addi	sp,sp,-16
   412d8:	dfc00315 	stw	ra,12(sp)
   412dc:	df000215 	stw	fp,8(sp)
   412e0:	df000204 	addi	fp,sp,8
	int k = 0;
   412e4:	e03ffe15 	stw	zero,-8(fp)
	int leftChannel = 0;
   412e8:	e03fff15 	stw	zero,-4(fp)

	//Left channel LRCOUT = 0
	IOWR_ALTERA_AVALON_PIO_DATA(LRCOUT_BASE, 0);
   412ec:	0007883a 	mov	r3,zero
   412f0:	00800234 	movhi	r2,8
   412f4:	10846004 	addi	r2,r2,4480
   412f8:	10c00035 	stwio	r3,0(r2)
    delay(3);
   412fc:	010000c4 	movi	r4,3
   41300:	00412800 	call	41280 <delay>
    IOWR_ALTERA_AVALON_PIO_DATA(BCLK_OUT_BASE, 0);
   41304:	0007883a 	mov	r3,zero
   41308:	00800234 	movhi	r2,8
   4130c:	10845804 	addi	r2,r2,4448
   41310:	10c00035 	stwio	r3,0(r2)
	delay(3);
   41314:	010000c4 	movi	r4,3
   41318:	00412800 	call	41280 <delay>
	IOWR_ALTERA_AVALON_PIO_DATA(BCLK_OUT_BASE, 1);
   4131c:	00c00044 	movi	r3,1
   41320:	00800234 	movhi	r2,8
   41324:	10845804 	addi	r2,r2,4448
   41328:	10c00035 	stwio	r3,0(r2)
	delay(3);
   4132c:	010000c4 	movi	r4,3
   41330:	00412800 	call	41280 <delay>
	for(k = 0; k < 16; k++){
   41334:	e03ffe15 	stw	zero,-8(fp)
   41338:	00001b06 	br	413a8 <I2S_collect_left+0xd4>
		IOWR_ALTERA_AVALON_PIO_DATA(BCLK_OUT_BASE, 0);
   4133c:	0007883a 	mov	r3,zero
   41340:	00800234 	movhi	r2,8
   41344:	10845804 	addi	r2,r2,4448
   41348:	10c00035 	stwio	r3,0(r2)
		delay(3);
   4134c:	010000c4 	movi	r4,3
   41350:	00412800 	call	41280 <delay>
		IOWR_ALTERA_AVALON_PIO_DATA(BCLK_OUT_BASE, 1);
   41354:	00c00044 	movi	r3,1
   41358:	00800234 	movhi	r2,8
   4135c:	10845804 	addi	r2,r2,4448
   41360:	10c00035 	stwio	r3,0(r2)
		delay(3);
   41364:	010000c4 	movi	r4,3
   41368:	00412800 	call	41280 <delay>
		//printf("%i", IORD_ALTERA_AVALON_PIO_DATA(DOUT_BASE));
		leftChannel |= IORD_ALTERA_AVALON_PIO_DATA(DOUT_BASE);
   4136c:	00800234 	movhi	r2,8
   41370:	10845c04 	addi	r2,r2,4464
   41374:	10800037 	ldwio	r2,0(r2)
   41378:	e0ffff17 	ldw	r3,-4(fp)
   4137c:	1884b03a 	or	r2,r3,r2
   41380:	e0bfff15 	stw	r2,-4(fp)
		if(k < 15)
   41384:	e0bffe17 	ldw	r2,-8(fp)
   41388:	108003c8 	cmpgei	r2,r2,15
   4138c:	1000031e 	bne	r2,zero,4139c <I2S_collect_left+0xc8>
			leftChannel <<= 1;
   41390:	e0bfff17 	ldw	r2,-4(fp)
   41394:	1085883a 	add	r2,r2,r2
   41398:	e0bfff15 	stw	r2,-4(fp)
    delay(3);
    IOWR_ALTERA_AVALON_PIO_DATA(BCLK_OUT_BASE, 0);
	delay(3);
	IOWR_ALTERA_AVALON_PIO_DATA(BCLK_OUT_BASE, 1);
	delay(3);
	for(k = 0; k < 16; k++){
   4139c:	e0bffe17 	ldw	r2,-8(fp)
   413a0:	10800044 	addi	r2,r2,1
   413a4:	e0bffe15 	stw	r2,-8(fp)
   413a8:	e0bffe17 	ldw	r2,-8(fp)
   413ac:	10800410 	cmplti	r2,r2,16
   413b0:	103fe21e 	bne	r2,zero,4133c <__alt_data_end+0xfffcf33c>
		leftChannel |= IORD_ALTERA_AVALON_PIO_DATA(DOUT_BASE);
		if(k < 15)
			leftChannel <<= 1;

	}
	return leftChannel;
   413b4:	e0bfff17 	ldw	r2,-4(fp)
}
   413b8:	e037883a 	mov	sp,fp
   413bc:	dfc00117 	ldw	ra,4(sp)
   413c0:	df000017 	ldw	fp,0(sp)
   413c4:	dec00204 	addi	sp,sp,8
   413c8:	f800283a 	ret

000413cc <I2S_collect_right>:

int I2S_collect_right(){
   413cc:	defffc04 	addi	sp,sp,-16
   413d0:	dfc00315 	stw	ra,12(sp)
   413d4:	df000215 	stw	fp,8(sp)
   413d8:	df000204 	addi	fp,sp,8
	int l = 0;
   413dc:	e03ffe15 	stw	zero,-8(fp)
	int rightChannel = 0;
   413e0:	e03fff15 	stw	zero,-4(fp)
	//right channel LRCOUT = 1
	IOWR_ALTERA_AVALON_PIO_DATA(LRCOUT_BASE, 1);
   413e4:	00c00044 	movi	r3,1
   413e8:	00800234 	movhi	r2,8
   413ec:	10846004 	addi	r2,r2,4480
   413f0:	10c00035 	stwio	r3,0(r2)
    delay(3);
   413f4:	010000c4 	movi	r4,3
   413f8:	00412800 	call	41280 <delay>
    IOWR_ALTERA_AVALON_PIO_DATA(BCLK_OUT_BASE, 0);
   413fc:	0007883a 	mov	r3,zero
   41400:	00800234 	movhi	r2,8
   41404:	10845804 	addi	r2,r2,4448
   41408:	10c00035 	stwio	r3,0(r2)
	delay(3);
   4140c:	010000c4 	movi	r4,3
   41410:	00412800 	call	41280 <delay>
	IOWR_ALTERA_AVALON_PIO_DATA(BCLK_OUT_BASE, 1);
   41414:	00c00044 	movi	r3,1
   41418:	00800234 	movhi	r2,8
   4141c:	10845804 	addi	r2,r2,4448
   41420:	10c00035 	stwio	r3,0(r2)
	for(l = 0; l < 16; l++){
   41424:	e03ffe15 	stw	zero,-8(fp)
   41428:	00001b06 	br	41498 <I2S_collect_right+0xcc>
		IOWR_ALTERA_AVALON_PIO_DATA(BCLK_OUT_BASE, 0);
   4142c:	0007883a 	mov	r3,zero
   41430:	00800234 	movhi	r2,8
   41434:	10845804 	addi	r2,r2,4448
   41438:	10c00035 	stwio	r3,0(r2)
		delay(3);
   4143c:	010000c4 	movi	r4,3
   41440:	00412800 	call	41280 <delay>
		IOWR_ALTERA_AVALON_PIO_DATA(BCLK_OUT_BASE, 1);
   41444:	00c00044 	movi	r3,1
   41448:	00800234 	movhi	r2,8
   4144c:	10845804 	addi	r2,r2,4448
   41450:	10c00035 	stwio	r3,0(r2)
		delay(3);
   41454:	010000c4 	movi	r4,3
   41458:	00412800 	call	41280 <delay>
		rightChannel |= IORD_ALTERA_AVALON_PIO_DATA(DOUT_BASE);
   4145c:	00800234 	movhi	r2,8
   41460:	10845c04 	addi	r2,r2,4464
   41464:	10800037 	ldwio	r2,0(r2)
   41468:	e0ffff17 	ldw	r3,-4(fp)
   4146c:	1884b03a 	or	r2,r3,r2
   41470:	e0bfff15 	stw	r2,-4(fp)
		if(l < 15)
   41474:	e0bffe17 	ldw	r2,-8(fp)
   41478:	108003c8 	cmpgei	r2,r2,15
   4147c:	1000031e 	bne	r2,zero,4148c <I2S_collect_right+0xc0>
			rightChannel <<= 1;
   41480:	e0bfff17 	ldw	r2,-4(fp)
   41484:	1085883a 	add	r2,r2,r2
   41488:	e0bfff15 	stw	r2,-4(fp)
	IOWR_ALTERA_AVALON_PIO_DATA(LRCOUT_BASE, 1);
    delay(3);
    IOWR_ALTERA_AVALON_PIO_DATA(BCLK_OUT_BASE, 0);
	delay(3);
	IOWR_ALTERA_AVALON_PIO_DATA(BCLK_OUT_BASE, 1);
	for(l = 0; l < 16; l++){
   4148c:	e0bffe17 	ldw	r2,-8(fp)
   41490:	10800044 	addi	r2,r2,1
   41494:	e0bffe15 	stw	r2,-8(fp)
   41498:	e0bffe17 	ldw	r2,-8(fp)
   4149c:	10800410 	cmplti	r2,r2,16
   414a0:	103fe21e 	bne	r2,zero,4142c <__alt_data_end+0xfffcf42c>
		rightChannel |= IORD_ALTERA_AVALON_PIO_DATA(DOUT_BASE);
		if(l < 15)
			rightChannel <<= 1;
	}

	return rightChannel;
   414a4:	e0bfff17 	ldw	r2,-4(fp)

}
   414a8:	e037883a 	mov	sp,fp
   414ac:	dfc00117 	ldw	ra,4(sp)
   414b0:	df000017 	ldw	fp,0(sp)
   414b4:	dec00204 	addi	sp,sp,8
   414b8:	f800283a 	ret

000414bc <I2S_send_left>:


void I2S_send_left(int leftdata){
   414bc:	defffc04 	addi	sp,sp,-16
   414c0:	dfc00315 	stw	ra,12(sp)
   414c4:	df000215 	stw	fp,8(sp)
   414c8:	df000204 	addi	fp,sp,8
   414cc:	e13fff15 	stw	r4,-4(fp)
	int temp = 0;
   414d0:	e03ffe15 	stw	zero,-8(fp)

	//Toggle LRCIN to 0
	IOWR_ALTERA_AVALON_PIO_DATA(LRCIN_BASE, 0);
   414d4:	0007883a 	mov	r3,zero
   414d8:	00800234 	movhi	r2,8
   414dc:	10845404 	addi	r2,r2,4432
   414e0:	10c00035 	stwio	r3,0(r2)
	delay(3);
   414e4:	010000c4 	movi	r4,3
   414e8:	00412800 	call	41280 <delay>

	//first Bclk cycle
	IOWR_ALTERA_AVALON_PIO_DATA(BCLK_OUT_BASE, 0);
   414ec:	0007883a 	mov	r3,zero
   414f0:	00800234 	movhi	r2,8
   414f4:	10845804 	addi	r2,r2,4448
   414f8:	10c00035 	stwio	r3,0(r2)
	delay(3);
   414fc:	010000c4 	movi	r4,3
   41500:	00412800 	call	41280 <delay>
	IOWR_ALTERA_AVALON_PIO_DATA(BCLK_OUT_BASE, 1);
   41504:	00c00044 	movi	r3,1
   41508:	00800234 	movhi	r2,8
   4150c:	10845804 	addi	r2,r2,4448
   41510:	10c00035 	stwio	r3,0(r2)

	//Clock in the data
	for(temp = 0; temp < 16; temp++){
   41514:	e03ffe15 	stw	zero,-8(fp)
   41518:	00001906 	br	41580 <I2S_send_left+0xc4>
		//Insert the data to DIN_BASE
		IOWR_ALTERA_AVALON_PIO_DATA(DIN_BASE, !!(leftdata&0x1000));
   4151c:	e0bfff17 	ldw	r2,-4(fp)
   41520:	1084000c 	andi	r2,r2,4096
   41524:	1004c03a 	cmpne	r2,r2,zero
   41528:	10c03fcc 	andi	r3,r2,255
   4152c:	00800234 	movhi	r2,8
   41530:	10846804 	addi	r2,r2,4512
   41534:	10c00035 	stwio	r3,0(r2)
		IOWR_ALTERA_AVALON_PIO_DATA(BCLK_OUT_BASE, 0);
   41538:	0007883a 	mov	r3,zero
   4153c:	00800234 	movhi	r2,8
   41540:	10845804 	addi	r2,r2,4448
   41544:	10c00035 	stwio	r3,0(r2)
		delay(3);
   41548:	010000c4 	movi	r4,3
   4154c:	00412800 	call	41280 <delay>
		IOWR_ALTERA_AVALON_PIO_DATA(BCLK_OUT_BASE, 1);
   41550:	00c00044 	movi	r3,1
   41554:	00800234 	movhi	r2,8
   41558:	10845804 	addi	r2,r2,4448
   4155c:	10c00035 	stwio	r3,0(r2)
		delay(3);
   41560:	010000c4 	movi	r4,3
   41564:	00412800 	call	41280 <delay>
		leftdata <<= 1;
   41568:	e0bfff17 	ldw	r2,-4(fp)
   4156c:	1085883a 	add	r2,r2,r2
   41570:	e0bfff15 	stw	r2,-4(fp)
	IOWR_ALTERA_AVALON_PIO_DATA(BCLK_OUT_BASE, 0);
	delay(3);
	IOWR_ALTERA_AVALON_PIO_DATA(BCLK_OUT_BASE, 1);

	//Clock in the data
	for(temp = 0; temp < 16; temp++){
   41574:	e0bffe17 	ldw	r2,-8(fp)
   41578:	10800044 	addi	r2,r2,1
   4157c:	e0bffe15 	stw	r2,-8(fp)
   41580:	e0bffe17 	ldw	r2,-8(fp)
   41584:	10800410 	cmplti	r2,r2,16
   41588:	103fe41e 	bne	r2,zero,4151c <__alt_data_end+0xfffcf51c>
		delay(3);
		IOWR_ALTERA_AVALON_PIO_DATA(BCLK_OUT_BASE, 1);
		delay(3);
		leftdata <<= 1;
	}
}
   4158c:	e037883a 	mov	sp,fp
   41590:	dfc00117 	ldw	ra,4(sp)
   41594:	df000017 	ldw	fp,0(sp)
   41598:	dec00204 	addi	sp,sp,8
   4159c:	f800283a 	ret

000415a0 <I2S_send_right>:


void I2S_send_right(int rightdata){
   415a0:	defffc04 	addi	sp,sp,-16
   415a4:	dfc00315 	stw	ra,12(sp)
   415a8:	df000215 	stw	fp,8(sp)
   415ac:	df000204 	addi	fp,sp,8
   415b0:	e13fff15 	stw	r4,-4(fp)
	int temp = 0;
   415b4:	e03ffe15 	stw	zero,-8(fp)
	//Toggle LRCIN to 0
	IOWR_ALTERA_AVALON_PIO_DATA(0x81060, 1);
   415b8:	00c00044 	movi	r3,1
   415bc:	00800234 	movhi	r2,8
   415c0:	10841804 	addi	r2,r2,4192
   415c4:	10c00035 	stwio	r3,0(r2)
	delay(3);
   415c8:	010000c4 	movi	r4,3
   415cc:	00412800 	call	41280 <delay>

	//first Bclk cycle
	IOWR_ALTERA_AVALON_PIO_DATA(BCLK_OUT_BASE, 0);
   415d0:	0007883a 	mov	r3,zero
   415d4:	00800234 	movhi	r2,8
   415d8:	10845804 	addi	r2,r2,4448
   415dc:	10c00035 	stwio	r3,0(r2)
	delay(3);
   415e0:	010000c4 	movi	r4,3
   415e4:	00412800 	call	41280 <delay>
	IOWR_ALTERA_AVALON_PIO_DATA(BCLK_OUT_BASE, 1);
   415e8:	00c00044 	movi	r3,1
   415ec:	00800234 	movhi	r2,8
   415f0:	10845804 	addi	r2,r2,4448
   415f4:	10c00035 	stwio	r3,0(r2)

	//Clock in the data
	for(temp = 0; temp < 16; temp++){
   415f8:	e03ffe15 	stw	zero,-8(fp)
   415fc:	00001906 	br	41664 <I2S_send_right+0xc4>
		//Insert the data to DIN_BASE
		IOWR_ALTERA_AVALON_PIO_DATA(DIN_BASE, !!(rightdata&0x1000));
   41600:	e0bfff17 	ldw	r2,-4(fp)
   41604:	1084000c 	andi	r2,r2,4096
   41608:	1004c03a 	cmpne	r2,r2,zero
   4160c:	10c03fcc 	andi	r3,r2,255
   41610:	00800234 	movhi	r2,8
   41614:	10846804 	addi	r2,r2,4512
   41618:	10c00035 	stwio	r3,0(r2)

		IOWR_ALTERA_AVALON_PIO_DATA(BCLK_OUT_BASE, 0);
   4161c:	0007883a 	mov	r3,zero
   41620:	00800234 	movhi	r2,8
   41624:	10845804 	addi	r2,r2,4448
   41628:	10c00035 	stwio	r3,0(r2)
		delay(3);
   4162c:	010000c4 	movi	r4,3
   41630:	00412800 	call	41280 <delay>
		IOWR_ALTERA_AVALON_PIO_DATA(BCLK_OUT_BASE, 1);
   41634:	00c00044 	movi	r3,1
   41638:	00800234 	movhi	r2,8
   4163c:	10845804 	addi	r2,r2,4448
   41640:	10c00035 	stwio	r3,0(r2)
		delay(3);
   41644:	010000c4 	movi	r4,3
   41648:	00412800 	call	41280 <delay>
		rightdata <<= 1;
   4164c:	e0bfff17 	ldw	r2,-4(fp)
   41650:	1085883a 	add	r2,r2,r2
   41654:	e0bfff15 	stw	r2,-4(fp)
	IOWR_ALTERA_AVALON_PIO_DATA(BCLK_OUT_BASE, 0);
	delay(3);
	IOWR_ALTERA_AVALON_PIO_DATA(BCLK_OUT_BASE, 1);

	//Clock in the data
	for(temp = 0; temp < 16; temp++){
   41658:	e0bffe17 	ldw	r2,-8(fp)
   4165c:	10800044 	addi	r2,r2,1
   41660:	e0bffe15 	stw	r2,-8(fp)
   41664:	e0bffe17 	ldw	r2,-8(fp)
   41668:	10800410 	cmplti	r2,r2,16
   4166c:	103fe41e 	bne	r2,zero,41600 <__alt_data_end+0xfffcf600>
		delay(3);
		IOWR_ALTERA_AVALON_PIO_DATA(BCLK_OUT_BASE, 1);
		delay(3);
		rightdata <<= 1;
	}
}
   41670:	e037883a 	mov	sp,fp
   41674:	dfc00117 	ldw	ra,4(sp)
   41678:	df000017 	ldw	fp,0(sp)
   4167c:	dec00204 	addi	sp,sp,8
   41680:	f800283a 	ret

00041684 <I2S_send_lr>:


void I2S_send_lr(int left, int right){
   41684:	defffc04 	addi	sp,sp,-16
   41688:	dfc00315 	stw	ra,12(sp)
   4168c:	df000215 	stw	fp,8(sp)
   41690:	df000204 	addi	fp,sp,8
   41694:	e13ffe15 	stw	r4,-8(fp)
   41698:	e17fff15 	stw	r5,-4(fp)
	I2S_send_left(left);
   4169c:	e13ffe17 	ldw	r4,-8(fp)
   416a0:	00414bc0 	call	414bc <I2S_send_left>
	I2S_send_right(right);
   416a4:	e13fff17 	ldw	r4,-4(fp)
   416a8:	00415a00 	call	415a0 <I2S_send_right>
}
   416ac:	e037883a 	mov	sp,fp
   416b0:	dfc00117 	ldw	ra,4(sp)
   416b4:	df000017 	ldw	fp,0(sp)
   416b8:	dec00204 	addi	sp,sp,8
   416bc:	f800283a 	ret

000416c0 <fft>:
    float imag;
    };
typedef struct cmpx COMPLEX;

void fft(COMPLEX *Y, int M, COMPLEX *w)       //input sample array, number of points
{
   416c0:	deffec04 	addi	sp,sp,-80
   416c4:	dfc01315 	stw	ra,76(sp)
   416c8:	df001215 	stw	fp,72(sp)
   416cc:	dc401115 	stw	r17,68(sp)
   416d0:	dc001015 	stw	r16,64(sp)
   416d4:	df001204 	addi	fp,sp,72
   416d8:	e13ffb15 	stw	r4,-20(fp)
   416dc:	e17ffc15 	stw	r5,-16(fp)
   416e0:	e1bffd15 	stw	r6,-12(fp)
  COMPLEX temp1,temp2;            //temporary storage variables
  int i,j,k;                      //loop counter variables
  int upper_leg, lower_leg;       //index of upper/lower butterfly leg
  int leg_diff;                   //difference between upper/lower leg
  int num_stages=0;               //number of FFT stages, or iterations
   416e4:	e03ff315 	stw	zero,-52(fp)
  int index, step;                //index and step between twiddle factor
  i=1;                            //log(base 2) of # of points = # of stages
   416e8:	00800044 	movi	r2,1
   416ec:	e0bfee15 	stw	r2,-72(fp)
  do
  {
    num_stages+=1;
   416f0:	e0bff317 	ldw	r2,-52(fp)
   416f4:	10800044 	addi	r2,r2,1
   416f8:	e0bff315 	stw	r2,-52(fp)
    i=i*2;
   416fc:	e0bfee17 	ldw	r2,-72(fp)
   41700:	1085883a 	add	r2,r2,r2
   41704:	e0bfee15 	stw	r2,-72(fp)
  } while (i!=M);
   41708:	e0ffee17 	ldw	r3,-72(fp)
   4170c:	e0bffc17 	ldw	r2,-16(fp)
   41710:	18bff71e 	bne	r3,r2,416f0 <__alt_data_end+0xfffcf6f0>

  leg_diff=M/2;                 //starting difference between upper & lower legs
   41714:	e0bffc17 	ldw	r2,-16(fp)
   41718:	1006d7fa 	srli	r3,r2,31
   4171c:	1885883a 	add	r2,r3,r2
   41720:	1005d07a 	srai	r2,r2,1
   41724:	e0bff215 	stw	r2,-56(fp)
  step=2;                     //step between values in twiddle.h              
   41728:	00800084 	movi	r2,2
   4172c:	e0bff515 	stw	r2,-44(fp)
  for (i=0;i<num_stages;i++)      //for M-point FFT                 
   41730:	e03fee15 	stw	zero,-72(fp)
   41734:	0000ac06 	br	419e8 <fft+0x328>
  {
    index=0;
   41738:	e03ff415 	stw	zero,-48(fp)
    for (j=0;j<leg_diff;j++)
   4173c:	e03fef15 	stw	zero,-68(fp)
   41740:	00009b06 	br	419b0 <fft+0x2f0>
    {
      for (upper_leg=j;upper_leg<M;upper_leg+=(2*leg_diff))
   41744:	e0bfef17 	ldw	r2,-68(fp)
   41748:	e0bff115 	stw	r2,-60(fp)
   4174c:	00008e06 	br	41988 <fft+0x2c8>
      {
        lower_leg=upper_leg+leg_diff;
   41750:	e0fff117 	ldw	r3,-60(fp)
   41754:	e0bff217 	ldw	r2,-56(fp)
   41758:	1885883a 	add	r2,r3,r2
   4175c:	e0bff615 	stw	r2,-40(fp)
        temp1.real=(Y[upper_leg]).real + (Y[lower_leg]).real;
   41760:	e0bff117 	ldw	r2,-60(fp)
   41764:	100490fa 	slli	r2,r2,3
   41768:	e0fffb17 	ldw	r3,-20(fp)
   4176c:	1885883a 	add	r2,r3,r2
   41770:	11000017 	ldw	r4,0(r2)
   41774:	e0bff617 	ldw	r2,-40(fp)
   41778:	100490fa 	slli	r2,r2,3
   4177c:	e0fffb17 	ldw	r3,-20(fp)
   41780:	1885883a 	add	r2,r3,r2
   41784:	10c00017 	ldw	r3,0(r2)
   41788:	180b883a 	mov	r5,r3
   4178c:	0044bc00 	call	44bc0 <__addsf3>
   41790:	1007883a 	mov	r3,r2
   41794:	1805883a 	mov	r2,r3
   41798:	e0bff715 	stw	r2,-36(fp)
        temp1.imag=(Y[upper_leg]).imag + (Y[lower_leg]).imag;
   4179c:	e0bff117 	ldw	r2,-60(fp)
   417a0:	100490fa 	slli	r2,r2,3
   417a4:	e0fffb17 	ldw	r3,-20(fp)
   417a8:	1885883a 	add	r2,r3,r2
   417ac:	11000117 	ldw	r4,4(r2)
   417b0:	e0bff617 	ldw	r2,-40(fp)
   417b4:	100490fa 	slli	r2,r2,3
   417b8:	e0fffb17 	ldw	r3,-20(fp)
   417bc:	1885883a 	add	r2,r3,r2
   417c0:	10c00117 	ldw	r3,4(r2)
   417c4:	180b883a 	mov	r5,r3
   417c8:	0044bc00 	call	44bc0 <__addsf3>
   417cc:	1007883a 	mov	r3,r2
   417d0:	1805883a 	mov	r2,r3
   417d4:	e0bff815 	stw	r2,-32(fp)
        temp2.real=(Y[upper_leg]).real - (Y[lower_leg]).real;
   417d8:	e0bff117 	ldw	r2,-60(fp)
   417dc:	100490fa 	slli	r2,r2,3
   417e0:	e0fffb17 	ldw	r3,-20(fp)
   417e4:	1885883a 	add	r2,r3,r2
   417e8:	11000017 	ldw	r4,0(r2)
   417ec:	e0bff617 	ldw	r2,-40(fp)
   417f0:	100490fa 	slli	r2,r2,3
   417f4:	e0fffb17 	ldw	r3,-20(fp)
   417f8:	1885883a 	add	r2,r3,r2
   417fc:	10c00017 	ldw	r3,0(r2)
   41800:	180b883a 	mov	r5,r3
   41804:	00454c40 	call	454c4 <__subsf3>
   41808:	1007883a 	mov	r3,r2
   4180c:	1805883a 	mov	r2,r3
   41810:	e0bff915 	stw	r2,-28(fp)
        temp2.imag=(Y[upper_leg]).imag - (Y[lower_leg]).imag;
   41814:	e0bff117 	ldw	r2,-60(fp)
   41818:	100490fa 	slli	r2,r2,3
   4181c:	e0fffb17 	ldw	r3,-20(fp)
   41820:	1885883a 	add	r2,r3,r2
   41824:	11000117 	ldw	r4,4(r2)
   41828:	e0bff617 	ldw	r2,-40(fp)
   4182c:	100490fa 	slli	r2,r2,3
   41830:	e0fffb17 	ldw	r3,-20(fp)
   41834:	1885883a 	add	r2,r3,r2
   41838:	10c00117 	ldw	r3,4(r2)
   4183c:	180b883a 	mov	r5,r3
   41840:	00454c40 	call	454c4 <__subsf3>
   41844:	1007883a 	mov	r3,r2
   41848:	1805883a 	mov	r2,r3
   4184c:	e0bffa15 	stw	r2,-24(fp)
        (Y[lower_leg]).real=((temp2.real*(w[index]).real-temp2.imag*(w[index]).imag));
   41850:	e0bff617 	ldw	r2,-40(fp)
   41854:	100490fa 	slli	r2,r2,3
   41858:	e0fffb17 	ldw	r3,-20(fp)
   4185c:	18a1883a 	add	r16,r3,r2
   41860:	e13ff917 	ldw	r4,-28(fp)
   41864:	e0bff417 	ldw	r2,-48(fp)
   41868:	100490fa 	slli	r2,r2,3
   4186c:	e0fffd17 	ldw	r3,-12(fp)
   41870:	1885883a 	add	r2,r3,r2
   41874:	10c00017 	ldw	r3,0(r2)
   41878:	180b883a 	mov	r5,r3
   4187c:	00450a00 	call	450a0 <__mulsf3>
   41880:	1007883a 	mov	r3,r2
   41884:	1823883a 	mov	r17,r3
   41888:	e13ffa17 	ldw	r4,-24(fp)
   4188c:	e0bff417 	ldw	r2,-48(fp)
   41890:	100490fa 	slli	r2,r2,3
   41894:	e0fffd17 	ldw	r3,-12(fp)
   41898:	1885883a 	add	r2,r3,r2
   4189c:	10c00117 	ldw	r3,4(r2)
   418a0:	180b883a 	mov	r5,r3
   418a4:	00450a00 	call	450a0 <__mulsf3>
   418a8:	1007883a 	mov	r3,r2
   418ac:	1805883a 	mov	r2,r3
   418b0:	8809883a 	mov	r4,r17
   418b4:	100b883a 	mov	r5,r2
   418b8:	00454c40 	call	454c4 <__subsf3>
   418bc:	1007883a 	mov	r3,r2
   418c0:	1805883a 	mov	r2,r3
   418c4:	80800015 	stw	r2,0(r16)
        (Y[lower_leg]).imag=((temp2.real*(w[index]).imag+temp2.imag*(w[index]).real));
   418c8:	e0bff617 	ldw	r2,-40(fp)
   418cc:	100490fa 	slli	r2,r2,3
   418d0:	e0fffb17 	ldw	r3,-20(fp)
   418d4:	18a1883a 	add	r16,r3,r2
   418d8:	e13ff917 	ldw	r4,-28(fp)
   418dc:	e0bff417 	ldw	r2,-48(fp)
   418e0:	100490fa 	slli	r2,r2,3
   418e4:	e0fffd17 	ldw	r3,-12(fp)
   418e8:	1885883a 	add	r2,r3,r2
   418ec:	10c00117 	ldw	r3,4(r2)
   418f0:	180b883a 	mov	r5,r3
   418f4:	00450a00 	call	450a0 <__mulsf3>
   418f8:	1007883a 	mov	r3,r2
   418fc:	1823883a 	mov	r17,r3
   41900:	e13ffa17 	ldw	r4,-24(fp)
   41904:	e0bff417 	ldw	r2,-48(fp)
   41908:	100490fa 	slli	r2,r2,3
   4190c:	e0fffd17 	ldw	r3,-12(fp)
   41910:	1885883a 	add	r2,r3,r2
   41914:	10c00017 	ldw	r3,0(r2)
   41918:	180b883a 	mov	r5,r3
   4191c:	00450a00 	call	450a0 <__mulsf3>
   41920:	1007883a 	mov	r3,r2
   41924:	1805883a 	mov	r2,r3
   41928:	8809883a 	mov	r4,r17
   4192c:	100b883a 	mov	r5,r2
   41930:	0044bc00 	call	44bc0 <__addsf3>
   41934:	1007883a 	mov	r3,r2
   41938:	1805883a 	mov	r2,r3
   4193c:	80800115 	stw	r2,4(r16)
        (Y[upper_leg]).real=temp1.real;
   41940:	e0bff117 	ldw	r2,-60(fp)
   41944:	100490fa 	slli	r2,r2,3
   41948:	e0fffb17 	ldw	r3,-20(fp)
   4194c:	1885883a 	add	r2,r3,r2
   41950:	e0fff717 	ldw	r3,-36(fp)
   41954:	10c00015 	stw	r3,0(r2)
        (Y[upper_leg]).imag=temp1.imag;
   41958:	e0bff117 	ldw	r2,-60(fp)
   4195c:	100490fa 	slli	r2,r2,3
   41960:	e0fffb17 	ldw	r3,-20(fp)
   41964:	1885883a 	add	r2,r3,r2
   41968:	e0fff817 	ldw	r3,-32(fp)
   4196c:	10c00115 	stw	r3,4(r2)
  for (i=0;i<num_stages;i++)      //for M-point FFT                 
  {
    index=0;
    for (j=0;j<leg_diff;j++)
    {
      for (upper_leg=j;upper_leg<M;upper_leg+=(2*leg_diff))
   41970:	e0bff217 	ldw	r2,-56(fp)
   41974:	1085883a 	add	r2,r2,r2
   41978:	1007883a 	mov	r3,r2
   4197c:	e0bff117 	ldw	r2,-60(fp)
   41980:	10c5883a 	add	r2,r2,r3
   41984:	e0bff115 	stw	r2,-60(fp)
   41988:	e0fff117 	ldw	r3,-60(fp)
   4198c:	e0bffc17 	ldw	r2,-16(fp)
   41990:	18bf6f16 	blt	r3,r2,41750 <__alt_data_end+0xfffcf750>
        (Y[lower_leg]).real=((temp2.real*(w[index]).real-temp2.imag*(w[index]).imag));
        (Y[lower_leg]).imag=((temp2.real*(w[index]).imag+temp2.imag*(w[index]).real));
        (Y[upper_leg]).real=temp1.real;
        (Y[upper_leg]).imag=temp1.imag;
      }
      index+=step;
   41994:	e0fff417 	ldw	r3,-48(fp)
   41998:	e0bff517 	ldw	r2,-44(fp)
   4199c:	1885883a 	add	r2,r3,r2
   419a0:	e0bff415 	stw	r2,-48(fp)
  leg_diff=M/2;                 //starting difference between upper & lower legs
  step=2;                     //step between values in twiddle.h              
  for (i=0;i<num_stages;i++)      //for M-point FFT                 
  {
    index=0;
    for (j=0;j<leg_diff;j++)
   419a4:	e0bfef17 	ldw	r2,-68(fp)
   419a8:	10800044 	addi	r2,r2,1
   419ac:	e0bfef15 	stw	r2,-68(fp)
   419b0:	e0ffef17 	ldw	r3,-68(fp)
   419b4:	e0bff217 	ldw	r2,-56(fp)
   419b8:	18bf6216 	blt	r3,r2,41744 <__alt_data_end+0xfffcf744>
        (Y[upper_leg]).real=temp1.real;
        (Y[upper_leg]).imag=temp1.imag;
      }
      index+=step;
    }
    leg_diff=leg_diff/2;
   419bc:	e0bff217 	ldw	r2,-56(fp)
   419c0:	1006d7fa 	srli	r3,r2,31
   419c4:	1885883a 	add	r2,r3,r2
   419c8:	1005d07a 	srai	r2,r2,1
   419cc:	e0bff215 	stw	r2,-56(fp)
    step*=2;
   419d0:	e0bff517 	ldw	r2,-44(fp)
   419d4:	1085883a 	add	r2,r2,r2
   419d8:	e0bff515 	stw	r2,-44(fp)
    i=i*2;
  } while (i!=M);

  leg_diff=M/2;                 //starting difference between upper & lower legs
  step=2;                     //step between values in twiddle.h              
  for (i=0;i<num_stages;i++)      //for M-point FFT                 
   419dc:	e0bfee17 	ldw	r2,-72(fp)
   419e0:	10800044 	addi	r2,r2,1
   419e4:	e0bfee15 	stw	r2,-72(fp)
   419e8:	e0ffee17 	ldw	r3,-72(fp)
   419ec:	e0bff317 	ldw	r2,-52(fp)
   419f0:	18bf5116 	blt	r3,r2,41738 <__alt_data_end+0xfffcf738>
    }
    leg_diff=leg_diff/2;
    step*=2;
  }

  j=0;
   419f4:	e03fef15 	stw	zero,-68(fp)
  for (i=1;i<(M-1);i++)           //bit reversal for resequencing data
   419f8:	00800044 	movi	r2,1
   419fc:	e0bfee15 	stw	r2,-72(fp)
   41a00:	00004806 	br	41b24 <fft+0x464>
  {
    k=M/2;
   41a04:	e0bffc17 	ldw	r2,-16(fp)
   41a08:	1006d7fa 	srli	r3,r2,31
   41a0c:	1885883a 	add	r2,r3,r2
   41a10:	1005d07a 	srai	r2,r2,1
   41a14:	e0bff015 	stw	r2,-64(fp)
    while (k<=j)
   41a18:	00000906 	br	41a40 <fft+0x380>
    {
      j=j-k;
   41a1c:	e0ffef17 	ldw	r3,-68(fp)
   41a20:	e0bff017 	ldw	r2,-64(fp)
   41a24:	1885c83a 	sub	r2,r3,r2
   41a28:	e0bfef15 	stw	r2,-68(fp)
      k=k/2;
   41a2c:	e0bff017 	ldw	r2,-64(fp)
   41a30:	1006d7fa 	srli	r3,r2,31
   41a34:	1885883a 	add	r2,r3,r2
   41a38:	1005d07a 	srai	r2,r2,1
   41a3c:	e0bff015 	stw	r2,-64(fp)

  j=0;
  for (i=1;i<(M-1);i++)           //bit reversal for resequencing data
  {
    k=M/2;
    while (k<=j)
   41a40:	e0bff017 	ldw	r2,-64(fp)
   41a44:	e0ffef17 	ldw	r3,-68(fp)
   41a48:	18bff40e 	bge	r3,r2,41a1c <__alt_data_end+0xfffcfa1c>
    {
      j=j-k;
      k=k/2;
    }
    j=j+k;
   41a4c:	e0ffef17 	ldw	r3,-68(fp)
   41a50:	e0bff017 	ldw	r2,-64(fp)
   41a54:	1885883a 	add	r2,r3,r2
   41a58:	e0bfef15 	stw	r2,-68(fp)
    if (i<j)
   41a5c:	e0ffee17 	ldw	r3,-72(fp)
   41a60:	e0bfef17 	ldw	r2,-68(fp)
   41a64:	18802c0e 	bge	r3,r2,41b18 <fft+0x458>
    {
      temp1.real=(Y[j]).real;
   41a68:	e0bfef17 	ldw	r2,-68(fp)
   41a6c:	100490fa 	slli	r2,r2,3
   41a70:	e0fffb17 	ldw	r3,-20(fp)
   41a74:	1887883a 	add	r3,r3,r2
   41a78:	18800017 	ldw	r2,0(r3)
   41a7c:	e0bff715 	stw	r2,-36(fp)
      temp1.imag=(Y[j]).imag;
   41a80:	e0bfef17 	ldw	r2,-68(fp)
   41a84:	100490fa 	slli	r2,r2,3
   41a88:	e0fffb17 	ldw	r3,-20(fp)
   41a8c:	1887883a 	add	r3,r3,r2
   41a90:	18800117 	ldw	r2,4(r3)
   41a94:	e0bff815 	stw	r2,-32(fp)
      (Y[j]).real=(Y[i]).real;
   41a98:	e0bfef17 	ldw	r2,-68(fp)
   41a9c:	100490fa 	slli	r2,r2,3
   41aa0:	e0fffb17 	ldw	r3,-20(fp)
   41aa4:	1885883a 	add	r2,r3,r2
   41aa8:	e0ffee17 	ldw	r3,-72(fp)
   41aac:	180690fa 	slli	r3,r3,3
   41ab0:	e13ffb17 	ldw	r4,-20(fp)
   41ab4:	20c9883a 	add	r4,r4,r3
   41ab8:	20c00017 	ldw	r3,0(r4)
   41abc:	10c00015 	stw	r3,0(r2)
      (Y[j]).imag=(Y[i]).imag;
   41ac0:	e0bfef17 	ldw	r2,-68(fp)
   41ac4:	100490fa 	slli	r2,r2,3
   41ac8:	e0fffb17 	ldw	r3,-20(fp)
   41acc:	1885883a 	add	r2,r3,r2
   41ad0:	e0ffee17 	ldw	r3,-72(fp)
   41ad4:	180690fa 	slli	r3,r3,3
   41ad8:	e13ffb17 	ldw	r4,-20(fp)
   41adc:	20c9883a 	add	r4,r4,r3
   41ae0:	20c00117 	ldw	r3,4(r4)
   41ae4:	10c00115 	stw	r3,4(r2)
      (Y[i]).real=temp1.real;
   41ae8:	e0bfee17 	ldw	r2,-72(fp)
   41aec:	100490fa 	slli	r2,r2,3
   41af0:	e0fffb17 	ldw	r3,-20(fp)
   41af4:	1885883a 	add	r2,r3,r2
   41af8:	e0fff717 	ldw	r3,-36(fp)
   41afc:	10c00015 	stw	r3,0(r2)
      (Y[i]).imag=temp1.imag;
   41b00:	e0bfee17 	ldw	r2,-72(fp)
   41b04:	100490fa 	slli	r2,r2,3
   41b08:	e0fffb17 	ldw	r3,-20(fp)
   41b0c:	1885883a 	add	r2,r3,r2
   41b10:	e0fff817 	ldw	r3,-32(fp)
   41b14:	10c00115 	stw	r3,4(r2)
    leg_diff=leg_diff/2;
    step*=2;
  }

  j=0;
  for (i=1;i<(M-1);i++)           //bit reversal for resequencing data
   41b18:	e0bfee17 	ldw	r2,-72(fp)
   41b1c:	10800044 	addi	r2,r2,1
   41b20:	e0bfee15 	stw	r2,-72(fp)
   41b24:	e0bffc17 	ldw	r2,-16(fp)
   41b28:	10bfffc4 	addi	r2,r2,-1
   41b2c:	e0ffee17 	ldw	r3,-72(fp)
   41b30:	18bfb416 	blt	r3,r2,41a04 <__alt_data_end+0xfffcfa04>
      (Y[i]).real=temp1.real;
      (Y[i]).imag=temp1.imag;
    }
  }

  return;
   41b34:	0001883a 	nop
}                                 //end of fft()
   41b38:	e6fffe04 	addi	sp,fp,-8
   41b3c:	dfc00317 	ldw	ra,12(sp)
   41b40:	df000217 	ldw	fp,8(sp)
   41b44:	dc400117 	ldw	r17,4(sp)
   41b48:	dc000017 	ldw	r16,0(sp)
   41b4c:	dec00404 	addi	sp,sp,16
   41b50:	f800283a 	ret

00041b54 <handle_switch0_interrupt>:
extern int setFreqFlag;

/*uart object*/
extern int uart;

static void handle_switch0_interrupt(void* context, alt_u32 id) {
   41b54:	defffc04 	addi	sp,sp,-16
   41b58:	df000315 	stw	fp,12(sp)
   41b5c:	df000304 	addi	fp,sp,12
   41b60:	e13ffe15 	stw	r4,-8(fp)
   41b64:	e17fff15 	stw	r5,-4(fp)
	 volatile int* switch0ptr = (volatile int *)context;
   41b68:	e0bffe17 	ldw	r2,-8(fp)
   41b6c:	e0bffd15 	stw	r2,-12(fp)
	 *switch0ptr = IORD_ALTERA_AVALON_PIO_EDGE_CAP(SWITCH0_BASE);
   41b70:	00800234 	movhi	r2,8
   41b74:	10848304 	addi	r2,r2,4620
   41b78:	10c00037 	ldwio	r3,0(r2)
   41b7c:	e0bffd17 	ldw	r2,-12(fp)
   41b80:	10c00015 	stw	r3,0(r2)

	 /* Write to the edge capture register to reset it. */
	 IOWR_ALTERA_AVALON_PIO_EDGE_CAP(SWITCH0_BASE, 0);
   41b84:	0007883a 	mov	r3,zero
   41b88:	00800234 	movhi	r2,8
   41b8c:	10848304 	addi	r2,r2,4620
   41b90:	10c00035 	stwio	r3,0(r2)

	 /*Perform Jobs*/


}
   41b94:	e037883a 	mov	sp,fp
   41b98:	df000017 	ldw	fp,0(sp)
   41b9c:	dec00104 	addi	sp,sp,4
   41ba0:	f800283a 	ret

00041ba4 <handle_switch1_interrupt>:

static void handle_switch1_interrupt(void* context, alt_u32 id) {
   41ba4:	defffc04 	addi	sp,sp,-16
   41ba8:	df000315 	stw	fp,12(sp)
   41bac:	df000304 	addi	fp,sp,12
   41bb0:	e13ffe15 	stw	r4,-8(fp)
   41bb4:	e17fff15 	stw	r5,-4(fp)
	 volatile int* switch1ptr = (volatile int *)context;
   41bb8:	e0bffe17 	ldw	r2,-8(fp)
   41bbc:	e0bffd15 	stw	r2,-12(fp)
	 *switch1ptr = IORD_ALTERA_AVALON_PIO_EDGE_CAP(SWITCH1_BASE);
   41bc0:	00800234 	movhi	r2,8
   41bc4:	10844704 	addi	r2,r2,4380
   41bc8:	10c00037 	ldwio	r3,0(r2)
   41bcc:	e0bffd17 	ldw	r2,-12(fp)
   41bd0:	10c00015 	stw	r3,0(r2)

	 /* Write to the edge capture register to reset it. */
	 IOWR_ALTERA_AVALON_PIO_EDGE_CAP(SWITCH1_BASE, 0);
   41bd4:	0007883a 	mov	r3,zero
   41bd8:	00800234 	movhi	r2,8
   41bdc:	10844704 	addi	r2,r2,4380
   41be0:	10c00035 	stwio	r3,0(r2)

	 /*Perform Jobs*/
}
   41be4:	e037883a 	mov	sp,fp
   41be8:	df000017 	ldw	fp,0(sp)
   41bec:	dec00104 	addi	sp,sp,4
   41bf0:	f800283a 	ret

00041bf4 <handle_key0_interrupt>:

/* Enable the flag to send recent
 * channel buffer to host computer.
 */
static void handle_key0_interrupt(void* context, alt_u32 id) {
   41bf4:	defff404 	addi	sp,sp,-48
   41bf8:	df000b15 	stw	fp,44(sp)
   41bfc:	df000b04 	addi	fp,sp,44
   41c00:	e13ffe15 	stw	r4,-8(fp)
   41c04:	e17fff15 	stw	r5,-4(fp)
	 volatile int* key0ptr = (volatile int *)context;
   41c08:	e0bffe17 	ldw	r2,-8(fp)
   41c0c:	e0bff515 	stw	r2,-44(fp)
	 *key0ptr = IORD_ALTERA_AVALON_PIO_EDGE_CAP(KEY0_BASE);
   41c10:	00800234 	movhi	r2,8
   41c14:	10847f04 	addi	r2,r2,4604
   41c18:	10c00037 	ldwio	r3,0(r2)
   41c1c:	e0bff517 	ldw	r2,-44(fp)
   41c20:	10c00015 	stw	r3,0(r2)

	 /* Write to the edge capture register to reset it. */
	 IOWR_ALTERA_AVALON_PIO_EDGE_CAP(KEY0_BASE, 0);
   41c24:	0007883a 	mov	r3,zero
   41c28:	00800234 	movhi	r2,8
   41c2c:	10847f04 	addi	r2,r2,4604
   41c30:	10c00035 	stwio	r3,0(r2)

	 uartStartSendFlag = 1;
   41c34:	00800044 	movi	r2,1
   41c38:	d0a74715 	stw	r2,-25316(gp)
	 alt_irq_disable(leftready_id);
   41c3c:	d0a00617 	ldw	r2,-32744(gp)
   41c40:	e0bff615 	stw	r2,-40(fp)
static ALT_INLINE alt_irq_context ALT_ALWAYS_INLINE 
       alt_irq_disable_all (void)
{
  alt_irq_context context;

  NIOS2_READ_STATUS (context);
   41c44:	0005303a 	rdctl	r2,status
   41c48:	e0bff715 	stw	r2,-36(fp)

  NIOS2_WRITE_STATUS (context & ~NIOS2_STATUS_PIE_MSK);
   41c4c:	e0fff717 	ldw	r3,-36(fp)
   41c50:	00bfff84 	movi	r2,-2
   41c54:	1884703a 	and	r2,r3,r2
   41c58:	1001703a 	wrctl	status,r2
  
  return context;
   41c5c:	e0bff717 	ldw	r2,-36(fp)
static ALT_INLINE int ALT_ALWAYS_INLINE alt_irq_disable (alt_u32 id)
{
  alt_irq_context  status;
  extern volatile alt_u32 alt_irq_active;

  status = alt_irq_disable_all ();
   41c60:	e0bff815 	stw	r2,-32(fp)

  alt_irq_active &= ~(1 << id);
   41c64:	e0bff617 	ldw	r2,-40(fp)
   41c68:	00c00044 	movi	r3,1
   41c6c:	1884983a 	sll	r2,r3,r2
   41c70:	0084303a 	nor	r2,zero,r2
   41c74:	1007883a 	mov	r3,r2
   41c78:	008001b4 	movhi	r2,6
   41c7c:	10a1a704 	addi	r2,r2,-31076
   41c80:	10800017 	ldw	r2,0(r2)
   41c84:	1886703a 	and	r3,r3,r2
   41c88:	008001b4 	movhi	r2,6
   41c8c:	10a1a704 	addi	r2,r2,-31076
   41c90:	10c00015 	stw	r3,0(r2)
  NIOS2_WRITE_IENABLE (alt_irq_active);
   41c94:	008001b4 	movhi	r2,6
   41c98:	10a1a704 	addi	r2,r2,-31076
   41c9c:	10800017 	ldw	r2,0(r2)
   41ca0:	100170fa 	wrctl	ienable,r2
   41ca4:	e0bff817 	ldw	r2,-32(fp)
   41ca8:	e0bff915 	stw	r2,-28(fp)
  status &= ~NIOS2_STATUS_PIE_MSK;
  status |= (context & NIOS2_STATUS_PIE_MSK);
  
  NIOS2_WRITE_STATUS (status);
#else
  NIOS2_WRITE_STATUS (context);
   41cac:	e0bff917 	ldw	r2,-28(fp)
   41cb0:	1001703a 	wrctl	status,r2
	 alt_irq_disable(rightready_id);
   41cb4:	d0a00717 	ldw	r2,-32740(gp)
   41cb8:	e0bffa15 	stw	r2,-24(fp)
static ALT_INLINE alt_irq_context ALT_ALWAYS_INLINE 
       alt_irq_disable_all (void)
{
  alt_irq_context context;

  NIOS2_READ_STATUS (context);
   41cbc:	0005303a 	rdctl	r2,status
   41cc0:	e0bffb15 	stw	r2,-20(fp)

  NIOS2_WRITE_STATUS (context & ~NIOS2_STATUS_PIE_MSK);
   41cc4:	e0fffb17 	ldw	r3,-20(fp)
   41cc8:	00bfff84 	movi	r2,-2
   41ccc:	1884703a 	and	r2,r3,r2
   41cd0:	1001703a 	wrctl	status,r2
  
  return context;
   41cd4:	e0bffb17 	ldw	r2,-20(fp)
static ALT_INLINE int ALT_ALWAYS_INLINE alt_irq_disable (alt_u32 id)
{
  alt_irq_context  status;
  extern volatile alt_u32 alt_irq_active;

  status = alt_irq_disable_all ();
   41cd8:	e0bffc15 	stw	r2,-16(fp)

  alt_irq_active &= ~(1 << id);
   41cdc:	e0bffa17 	ldw	r2,-24(fp)
   41ce0:	00c00044 	movi	r3,1
   41ce4:	1884983a 	sll	r2,r3,r2
   41ce8:	0084303a 	nor	r2,zero,r2
   41cec:	1007883a 	mov	r3,r2
   41cf0:	008001b4 	movhi	r2,6
   41cf4:	10a1a704 	addi	r2,r2,-31076
   41cf8:	10800017 	ldw	r2,0(r2)
   41cfc:	1886703a 	and	r3,r3,r2
   41d00:	008001b4 	movhi	r2,6
   41d04:	10a1a704 	addi	r2,r2,-31076
   41d08:	10c00015 	stw	r3,0(r2)
  NIOS2_WRITE_IENABLE (alt_irq_active);
   41d0c:	008001b4 	movhi	r2,6
   41d10:	10a1a704 	addi	r2,r2,-31076
   41d14:	10800017 	ldw	r2,0(r2)
   41d18:	100170fa 	wrctl	ienable,r2
   41d1c:	e0bffc17 	ldw	r2,-16(fp)
   41d20:	e0bffd15 	stw	r2,-12(fp)
  status &= ~NIOS2_STATUS_PIE_MSK;
  status |= (context & NIOS2_STATUS_PIE_MSK);
  
  NIOS2_WRITE_STATUS (status);
#else
  NIOS2_WRITE_STATUS (context);
   41d24:	e0bffd17 	ldw	r2,-12(fp)
   41d28:	1001703a 	wrctl	status,r2
}
   41d2c:	e037883a 	mov	sp,fp
   41d30:	df000017 	ldw	fp,0(sp)
   41d34:	dec00104 	addi	sp,sp,4
   41d38:	f800283a 	ret

00041d3c <handle_key1_interrupt>:

/* Enable the flag to update the
 * ADC sampling frequency on AIC23.
 */
static void handle_key1_interrupt(void* context, alt_u32 id) {
   41d3c:	defffc04 	addi	sp,sp,-16
   41d40:	df000315 	stw	fp,12(sp)
   41d44:	df000304 	addi	fp,sp,12
   41d48:	e13ffe15 	stw	r4,-8(fp)
   41d4c:	e17fff15 	stw	r5,-4(fp)
	 volatile int* key1ptr = (volatile int *)context;
   41d50:	e0bffe17 	ldw	r2,-8(fp)
   41d54:	e0bffd15 	stw	r2,-12(fp)
	 *key1ptr = IORD_ALTERA_AVALON_PIO_EDGE_CAP(KEY0_BASE);
   41d58:	00800234 	movhi	r2,8
   41d5c:	10847f04 	addi	r2,r2,4604
   41d60:	10c00037 	ldwio	r3,0(r2)
   41d64:	e0bffd17 	ldw	r2,-12(fp)
   41d68:	10c00015 	stw	r3,0(r2)

	 /* Write to the edge capture register to reset it. */
	 IOWR_ALTERA_AVALON_PIO_EDGE_CAP(KEY1_BASE, 0);
   41d6c:	0007883a 	mov	r3,zero
   41d70:	00800234 	movhi	r2,8
   41d74:	10845304 	addi	r2,r2,4428
   41d78:	10c00035 	stwio	r3,0(r2)

	 //IOWR_ALTERA_AVALON_PIO_IRQ_MASK(SWITCH1_BASE, 0x01);
	 setFreqFlag = 1;
   41d7c:	00800044 	movi	r2,1
   41d80:	d0a74a15 	stw	r2,-25304(gp)
}
   41d84:	e037883a 	mov	sp,fp
   41d88:	df000017 	ldw	fp,0(sp)
   41d8c:	dec00104 	addi	sp,sp,4
   41d90:	f800283a 	ret

00041d94 <handle_key2_interrupt>:

static void handle_key2_interrupt(void* context, alt_u32 id) {
   41d94:	defffc04 	addi	sp,sp,-16
   41d98:	df000315 	stw	fp,12(sp)
   41d9c:	df000304 	addi	fp,sp,12
   41da0:	e13ffe15 	stw	r4,-8(fp)
   41da4:	e17fff15 	stw	r5,-4(fp)
	 volatile int* key2ptr = (volatile int *)context;
   41da8:	e0bffe17 	ldw	r2,-8(fp)
   41dac:	e0bffd15 	stw	r2,-12(fp)
	 *key2ptr = IORD_ALTERA_AVALON_PIO_EDGE_CAP(KEY2_BASE);
   41db0:	00800234 	movhi	r2,8
   41db4:	10844f04 	addi	r2,r2,4412
   41db8:	10c00037 	ldwio	r3,0(r2)
   41dbc:	e0bffd17 	ldw	r2,-12(fp)
   41dc0:	10c00015 	stw	r3,0(r2)

	 /* Write to the edge capture register to reset it. */
	 IOWR_ALTERA_AVALON_PIO_EDGE_CAP(KEY2_BASE, 0);
   41dc4:	0007883a 	mov	r3,zero
   41dc8:	00800234 	movhi	r2,8
   41dcc:	10844f04 	addi	r2,r2,4412
   41dd0:	10c00035 	stwio	r3,0(r2)

}
   41dd4:	e037883a 	mov	sp,fp
   41dd8:	df000017 	ldw	fp,0(sp)
   41ddc:	dec00104 	addi	sp,sp,4
   41de0:	f800283a 	ret

00041de4 <handle_key3_interrupt>:

static void handle_key3_interrupt(void* context, alt_u32 id) {
   41de4:	defffc04 	addi	sp,sp,-16
   41de8:	df000315 	stw	fp,12(sp)
   41dec:	df000304 	addi	fp,sp,12
   41df0:	e13ffe15 	stw	r4,-8(fp)
   41df4:	e17fff15 	stw	r5,-4(fp)
	 volatile int* key3ptr = (volatile int *)context;
   41df8:	e0bffe17 	ldw	r2,-8(fp)
   41dfc:	e0bffd15 	stw	r2,-12(fp)
	 *key3ptr = IORD_ALTERA_AVALON_PIO_EDGE_CAP(KEY3_BASE);
   41e00:	00800234 	movhi	r2,8
   41e04:	10844b04 	addi	r2,r2,4396
   41e08:	10c00037 	ldwio	r3,0(r2)
   41e0c:	e0bffd17 	ldw	r2,-12(fp)
   41e10:	10c00015 	stw	r3,0(r2)

	 /* Write to the edge capture register to reset it. */
	 IOWR_ALTERA_AVALON_PIO_EDGE_CAP(KEY3_BASE, 0);
   41e14:	0007883a 	mov	r3,zero
   41e18:	00800234 	movhi	r2,8
   41e1c:	10844b04 	addi	r2,r2,4396
   41e20:	10c00035 	stwio	r3,0(r2)

	 IOWR_ALTERA_AVALON_PIO_DATA(LED_BASE, 0x10);
   41e24:	00c00404 	movi	r3,16
   41e28:	00800234 	movhi	r2,8
   41e2c:	10848404 	addi	r2,r2,4624
   41e30:	10c00035 	stwio	r3,0(r2)
}
   41e34:	e037883a 	mov	sp,fp
   41e38:	df000017 	ldw	fp,0(sp)
   41e3c:	dec00104 	addi	sp,sp,4
   41e40:	f800283a 	ret

00041e44 <unsigned2signed>:
 *  store in buffer,
 *  instantly play back.
 *
 */

int unsigned2signed(alt_16 unsign){
   41e44:	defffd04 	addi	sp,sp,-12
   41e48:	df000215 	stw	fp,8(sp)
   41e4c:	df000204 	addi	fp,sp,8
   41e50:	2005883a 	mov	r2,r4
   41e54:	e0bfff0d 	sth	r2,-4(fp)
	int result;
	if(unsign>32767)
		result = unsign - 65536;
	else
		result = unsign;
   41e58:	e0bfff0f 	ldh	r2,-4(fp)
   41e5c:	e0bffe15 	stw	r2,-8(fp)
	return result;
   41e60:	e0bffe17 	ldw	r2,-8(fp)
}
   41e64:	e037883a 	mov	sp,fp
   41e68:	df000017 	ldw	fp,0(sp)
   41e6c:	dec00104 	addi	sp,sp,4
   41e70:	f800283a 	ret

00041e74 <signed2unsigned>:

alt_16 signed2unsigned(int sign){
   41e74:	defffd04 	addi	sp,sp,-12
   41e78:	df000215 	stw	fp,8(sp)
   41e7c:	df000204 	addi	fp,sp,8
   41e80:	e13fff15 	stw	r4,-4(fp)
	alt_16 result;
	if(sign<0)
   41e84:	e0bfff17 	ldw	r2,-4(fp)
   41e88:	1000030e 	bge	r2,zero,41e98 <signed2unsigned+0x24>
		result = sign + 65536;
   41e8c:	e0bfff17 	ldw	r2,-4(fp)
   41e90:	e0bffe0d 	sth	r2,-8(fp)
   41e94:	00000206 	br	41ea0 <signed2unsigned+0x2c>
	else
		result = sign;
   41e98:	e0bfff17 	ldw	r2,-4(fp)
   41e9c:	e0bffe0d 	sth	r2,-8(fp)
	return result;
   41ea0:	e0bffe0b 	ldhu	r2,-8(fp)
}
   41ea4:	e037883a 	mov	sp,fp
   41ea8:	df000017 	ldw	fp,0(sp)
   41eac:	dec00104 	addi	sp,sp,4
   41eb0:	f800283a 	ret

00041eb4 <handle_leftready_interrupt_test>:

static void handle_leftready_interrupt_test(void* context, alt_u32 id) {
   41eb4:	defffc04 	addi	sp,sp,-16
   41eb8:	df000315 	stw	fp,12(sp)
   41ebc:	df000304 	addi	fp,sp,12
   41ec0:	e13ffe15 	stw	r4,-8(fp)
   41ec4:	e17fff15 	stw	r5,-4(fp)
	 volatile int* leftreadyptr = (volatile int *)context;
   41ec8:	e0bffe17 	ldw	r2,-8(fp)
   41ecc:	e0bffd15 	stw	r2,-12(fp)
	 *leftreadyptr = IORD_ALTERA_AVALON_PIO_EDGE_CAP(LEFTREADY_BASE);
   41ed0:	00800234 	movhi	r2,8
   41ed4:	10842b04 	addi	r2,r2,4268
   41ed8:	10c00037 	ldwio	r3,0(r2)
   41edc:	e0bffd17 	ldw	r2,-12(fp)
   41ee0:	10c00015 	stw	r3,0(r2)
	 IOWR_ALTERA_AVALON_PIO_EDGE_CAP(LEFTREADY_BASE, 0);
   41ee4:	0007883a 	mov	r3,zero
   41ee8:	00800234 	movhi	r2,8
   41eec:	10842b04 	addi	r2,r2,4268
   41ef0:	10c00035 	stwio	r3,0(r2)
	 /*******Read, playback, store data*******/
	 leftChannel = IORD_ALTERA_AVALON_PIO_DATA(LEFTDATA_BASE);
   41ef4:	00800234 	movhi	r2,8
   41ef8:	10843004 	addi	r2,r2,4288
   41efc:	10800037 	ldwio	r2,0(r2)
   41f00:	d0a73f15 	stw	r2,-25348(gp)
	 IOWR_ALTERA_AVALON_PIO_DATA(LEFTSENDDATA_BASE, leftChannel);
   41f04:	d0e73f17 	ldw	r3,-25348(gp)
   41f08:	00800234 	movhi	r2,8
   41f0c:	10842004 	addi	r2,r2,4224
   41f10:	10c00035 	stwio	r3,0(r2)
	 datatest[leftCount] = leftChannel;
   41f14:	d0e74317 	ldw	r3,-25332(gp)
   41f18:	d0a73f17 	ldw	r2,-25348(gp)
   41f1c:	1009883a 	mov	r4,r2
   41f20:	008001b4 	movhi	r2,6
   41f24:	10a1b704 	addi	r2,r2,-31012
   41f28:	18c7883a 	add	r3,r3,r3
   41f2c:	10c5883a 	add	r2,r2,r3
   41f30:	1100000d 	sth	r4,0(r2)
	 leftCount = (leftCount+1)%256;
   41f34:	d0a74317 	ldw	r2,-25332(gp)
   41f38:	10c00044 	addi	r3,r2,1
   41f3c:	00a00034 	movhi	r2,32768
   41f40:	10803fc4 	addi	r2,r2,255
   41f44:	1884703a 	and	r2,r3,r2
   41f48:	1000040e 	bge	r2,zero,41f5c <handle_leftready_interrupt_test+0xa8>
   41f4c:	10bfffc4 	addi	r2,r2,-1
   41f50:	00ffc004 	movi	r3,-256
   41f54:	10c4b03a 	or	r2,r2,r3
   41f58:	10800044 	addi	r2,r2,1
   41f5c:	d0a74315 	stw	r2,-25332(gp)
//	 /****************************************/

}
   41f60:	e037883a 	mov	sp,fp
   41f64:	df000017 	ldw	fp,0(sp)
   41f68:	dec00104 	addi	sp,sp,4
   41f6c:	f800283a 	ret

00041f70 <handle_rightready_interrupt_test>:
/*  Detect right channel ready interrupt and do:
 *  Collect data,
 *  store in buffer,
 *  instantly play back.
 */
static void handle_rightready_interrupt_test(void* context, alt_u32 id) {
   41f70:	defffb04 	addi	sp,sp,-20
   41f74:	dfc00415 	stw	ra,16(sp)
   41f78:	df000315 	stw	fp,12(sp)
   41f7c:	df000304 	addi	fp,sp,12
   41f80:	e13ffe15 	stw	r4,-8(fp)
   41f84:	e17fff15 	stw	r5,-4(fp)
	 volatile int* rightreadyptr = (volatile int *)context;
   41f88:	e0bffe17 	ldw	r2,-8(fp)
   41f8c:	e0bffd15 	stw	r2,-12(fp)
	 *rightreadyptr = IORD_ALTERA_AVALON_PIO_EDGE_CAP(RIGHTREADY_BASE);
   41f90:	00800234 	movhi	r2,8
   41f94:	10842704 	addi	r2,r2,4252
   41f98:	10c00037 	ldwio	r3,0(r2)
   41f9c:	e0bffd17 	ldw	r2,-12(fp)
   41fa0:	10c00015 	stw	r3,0(r2)
	 IOWR_ALTERA_AVALON_PIO_EDGE_CAP(RIGHTREADY_BASE, 0);
   41fa4:	0007883a 	mov	r3,zero
   41fa8:	00800234 	movhi	r2,8
   41fac:	10842704 	addi	r2,r2,4252
   41fb0:	10c00035 	stwio	r3,0(r2)
	 /*******Read, playback, store data*******/
	 rightChannel = IORD_ALTERA_AVALON_PIO_DATA(RIGHTDATA_BASE);
   41fb4:	00800234 	movhi	r2,8
   41fb8:	10842c04 	addi	r2,r2,4272
   41fbc:	10800037 	ldwio	r2,0(r2)
   41fc0:	d0a74015 	stw	r2,-25344(gp)
	 IOWR_ALTERA_AVALON_PIO_DATA(RIGHTSENDDATA_BASE, rightChannel);
   41fc4:	d0e74017 	ldw	r3,-25344(gp)
   41fc8:	00800234 	movhi	r2,8
   41fcc:	10841c04 	addi	r2,r2,4208
   41fd0:	10c00035 	stwio	r3,0(r2)
	 rightChannelData[rightCount] = rightChannel;
   41fd4:	d0e74517 	ldw	r3,-25324(gp)
   41fd8:	d0a74017 	ldw	r2,-25344(gp)
   41fdc:	1009883a 	mov	r4,r2
   41fe0:	008001b4 	movhi	r2,6
   41fe4:	10a72d04 	addi	r2,r2,-25420
   41fe8:	18c7883a 	add	r3,r3,r3
   41fec:	10c5883a 	add	r2,r2,r3
   41ff0:	1100000d 	sth	r4,0(r2)
	 rightCount = (rightCount+1) % BUFFERSIZE;
   41ff4:	d0a74517 	ldw	r2,-25324(gp)
   41ff8:	10800044 	addi	r2,r2,1
   41ffc:	1009883a 	mov	r4,r2
   42000:	014006c4 	movi	r5,27
   42004:	0044b540 	call	44b54 <__modsi3>
   42008:	d0a74515 	stw	r2,-25324(gp)
	 /****************************************/
}
   4200c:	e037883a 	mov	sp,fp
   42010:	dfc00117 	ldw	ra,4(sp)
   42014:	df000017 	ldw	fp,0(sp)
   42018:	dec00204 	addi	sp,sp,8
   4201c:	f800283a 	ret

00042020 <system_initialization>:

/*uart object*/
int uart;

/*System initialization function. Should be called before your while(1)*/
void system_initialization(){
   42020:	defffe04 	addi	sp,sp,-8
   42024:	dfc00115 	stw	ra,4(sp)
   42028:	df000015 	stw	fp,0(sp)
   4202c:	d839883a 	mov	fp,sp
	/*Hard-code to 1 right here, you can use ISR
	 *to change the value by yourself
	*/
	uartStartRecvFlag = 1;
   42030:	00800044 	movi	r2,1
   42034:	d0a74815 	stw	r2,-25312(gp)

	 /*Open Uart port and ready to transmit and receive*/
	 uart = open(UART_NAME, O_ACCMODE);
   42038:	01000174 	movhi	r4,5
   4203c:	21120e04 	addi	r4,r4,18488
   42040:	014000c4 	movi	r5,3
   42044:	0051f800 	call	51f80 <open>
   42048:	d0a74c15 	stw	r2,-25296(gp)
	 if(!uart){
   4204c:	d0a74c17 	ldw	r2,-25296(gp)
   42050:	1000041e 	bne	r2,zero,42064 <system_initialization+0x44>
		 printf("failed to open uart\n");
   42054:	01000174 	movhi	r4,5
   42058:	21121104 	addi	r4,r4,18500
   4205c:	004806c0 	call	4806c <puts>
   42060:	00000306 	br	42070 <system_initialization+0x50>
		 //return 0;
	 } else {
		 printf("Uart ready!\n");
   42064:	01000174 	movhi	r4,5
   42068:	21121604 	addi	r4,r4,18520
   4206c:	004806c0 	call	4806c <puts>
	 }

	 //Interrupts Registrations
	 alt_irq_register(switch0_id, (void *)&switch0, handle_switch0_interrupt);
   42070:	d0a00017 	ldw	r2,-32768(gp)
   42074:	1009883a 	mov	r4,r2
   42078:	d1673704 	addi	r5,gp,-25380
   4207c:	01800134 	movhi	r6,4
   42080:	3186d504 	addi	r6,r6,6996
   42084:	00519000 	call	51900 <alt_irq_register>
	 alt_irq_register(switch1_id, (void *)&switch1, handle_switch1_interrupt);
   42088:	d0a00117 	ldw	r2,-32764(gp)
   4208c:	1009883a 	mov	r4,r2
   42090:	d1673804 	addi	r5,gp,-25376
   42094:	01800134 	movhi	r6,4
   42098:	3186e904 	addi	r6,r6,7076
   4209c:	00519000 	call	51900 <alt_irq_register>
	 alt_irq_register(key0_id, (void *)&key0, handle_key0_interrupt);
   420a0:	d0a00217 	ldw	r2,-32760(gp)
   420a4:	1009883a 	mov	r4,r2
   420a8:	d1673904 	addi	r5,gp,-25372
   420ac:	01800134 	movhi	r6,4
   420b0:	3186fd04 	addi	r6,r6,7156
   420b4:	00519000 	call	51900 <alt_irq_register>
	 alt_irq_register(key1_id, (void *)&key1, handle_key1_interrupt);
   420b8:	d0a00317 	ldw	r2,-32756(gp)
   420bc:	1009883a 	mov	r4,r2
   420c0:	d1673a04 	addi	r5,gp,-25368
   420c4:	01800134 	movhi	r6,4
   420c8:	31874f04 	addi	r6,r6,7484
   420cc:	00519000 	call	51900 <alt_irq_register>
	 alt_irq_register(key2_id, (void *)&key2, handle_key2_interrupt);
   420d0:	d0a00417 	ldw	r2,-32752(gp)
   420d4:	1009883a 	mov	r4,r2
   420d8:	d1673b04 	addi	r5,gp,-25364
   420dc:	01800134 	movhi	r6,4
   420e0:	31876504 	addi	r6,r6,7572
   420e4:	00519000 	call	51900 <alt_irq_register>
	 alt_irq_register(key3_id, (void *)&key3, handle_key3_interrupt);
   420e8:	d0a00517 	ldw	r2,-32748(gp)
   420ec:	1009883a 	mov	r4,r2
   420f0:	d1673c04 	addi	r5,gp,-25360
   420f4:	01800134 	movhi	r6,4
   420f8:	31877904 	addi	r6,r6,7652
   420fc:	00519000 	call	51900 <alt_irq_register>
	 alt_irq_register(leftready_id, (void *)&leftready, handle_leftready_interrupt_test);
   42100:	d0a00617 	ldw	r2,-32744(gp)
   42104:	1009883a 	mov	r4,r2
   42108:	d1673d04 	addi	r5,gp,-25356
   4210c:	01800134 	movhi	r6,4
   42110:	3187ad04 	addi	r6,r6,7860
   42114:	00519000 	call	51900 <alt_irq_register>
	 alt_irq_register(rightready_id, (void *)&rightready, handle_rightready_interrupt_test);
   42118:	d0a00717 	ldw	r2,-32740(gp)
   4211c:	1009883a 	mov	r4,r2
   42120:	d1673e04 	addi	r5,gp,-25352
   42124:	01800134 	movhi	r6,4
   42128:	3187dc04 	addi	r6,r6,8048
   4212c:	00519000 	call	51900 <alt_irq_register>

	 /*Interrupt enable -> mask to enable it*/
	 IOWR_ALTERA_AVALON_PIO_IRQ_MASK(SWITCH0_BASE, 1);
   42130:	00c00044 	movi	r3,1
   42134:	00800234 	movhi	r2,8
   42138:	10848204 	addi	r2,r2,4616
   4213c:	10c00035 	stwio	r3,0(r2)
	 IOWR_ALTERA_AVALON_PIO_IRQ_MASK(SWITCH1_BASE, 1);
   42140:	00c00044 	movi	r3,1
   42144:	00800234 	movhi	r2,8
   42148:	10844604 	addi	r2,r2,4376
   4214c:	10c00035 	stwio	r3,0(r2)
	 IOWR_ALTERA_AVALON_PIO_IRQ_MASK(KEY0_BASE, 1);
   42150:	00c00044 	movi	r3,1
   42154:	00800234 	movhi	r2,8
   42158:	10847e04 	addi	r2,r2,4600
   4215c:	10c00035 	stwio	r3,0(r2)
	 IOWR_ALTERA_AVALON_PIO_IRQ_MASK(KEY1_BASE, 1);
   42160:	00c00044 	movi	r3,1
   42164:	00800234 	movhi	r2,8
   42168:	10845204 	addi	r2,r2,4424
   4216c:	10c00035 	stwio	r3,0(r2)
	 IOWR_ALTERA_AVALON_PIO_IRQ_MASK(KEY2_BASE, 1);
   42170:	00c00044 	movi	r3,1
   42174:	00800234 	movhi	r2,8
   42178:	10844e04 	addi	r2,r2,4408
   4217c:	10c00035 	stwio	r3,0(r2)
	 IOWR_ALTERA_AVALON_PIO_IRQ_MASK(KEY3_BASE, 1);
   42180:	00c00044 	movi	r3,1
   42184:	00800234 	movhi	r2,8
   42188:	10844a04 	addi	r2,r2,4392
   4218c:	10c00035 	stwio	r3,0(r2)
	 IOWR_ALTERA_AVALON_PIO_IRQ_MASK(LEFTREADY_BASE, 1);
   42190:	00c00044 	movi	r3,1
   42194:	00800234 	movhi	r2,8
   42198:	10842a04 	addi	r2,r2,4264
   4219c:	10c00035 	stwio	r3,0(r2)
	 IOWR_ALTERA_AVALON_PIO_IRQ_MASK(RIGHTREADY_BASE, 1);
   421a0:	00c00044 	movi	r3,1
   421a4:	00800234 	movhi	r2,8
   421a8:	10842604 	addi	r2,r2,4248
   421ac:	10c00035 	stwio	r3,0(r2)

	 /*Reset edge capture bit*/
	 IOWR_ALTERA_AVALON_PIO_EDGE_CAP(SWITCH0_BASE, 0);
   421b0:	0007883a 	mov	r3,zero
   421b4:	00800234 	movhi	r2,8
   421b8:	10848304 	addi	r2,r2,4620
   421bc:	10c00035 	stwio	r3,0(r2)
	 IOWR_ALTERA_AVALON_PIO_EDGE_CAP(SWITCH1_BASE, 0);
   421c0:	0007883a 	mov	r3,zero
   421c4:	00800234 	movhi	r2,8
   421c8:	10844704 	addi	r2,r2,4380
   421cc:	10c00035 	stwio	r3,0(r2)
	 IOWR_ALTERA_AVALON_PIO_EDGE_CAP(KEY0_BASE, 0);
   421d0:	0007883a 	mov	r3,zero
   421d4:	00800234 	movhi	r2,8
   421d8:	10847f04 	addi	r2,r2,4604
   421dc:	10c00035 	stwio	r3,0(r2)
	 IOWR_ALTERA_AVALON_PIO_EDGE_CAP(KEY1_BASE, 0);
   421e0:	0007883a 	mov	r3,zero
   421e4:	00800234 	movhi	r2,8
   421e8:	10845304 	addi	r2,r2,4428
   421ec:	10c00035 	stwio	r3,0(r2)
	 IOWR_ALTERA_AVALON_PIO_EDGE_CAP(KEY2_BASE, 0);
   421f0:	0007883a 	mov	r3,zero
   421f4:	00800234 	movhi	r2,8
   421f8:	10844f04 	addi	r2,r2,4412
   421fc:	10c00035 	stwio	r3,0(r2)
	 IOWR_ALTERA_AVALON_PIO_EDGE_CAP(KEY3_BASE, 0);
   42200:	0007883a 	mov	r3,zero
   42204:	00800234 	movhi	r2,8
   42208:	10844b04 	addi	r2,r2,4396
   4220c:	10c00035 	stwio	r3,0(r2)
	 IOWR_ALTERA_AVALON_PIO_EDGE_CAP(LEFTREADY_BASE, 0);
   42210:	0007883a 	mov	r3,zero
   42214:	00800234 	movhi	r2,8
   42218:	10842b04 	addi	r2,r2,4268
   4221c:	10c00035 	stwio	r3,0(r2)
	 IOWR_ALTERA_AVALON_PIO_EDGE_CAP(RIGHTREADY_BASE, 0);
   42220:	0007883a 	mov	r3,zero
   42224:	00800234 	movhi	r2,8
   42228:	10842704 	addi	r2,r2,4252
   4222c:	10c00035 	stwio	r3,0(r2)

	 /*turn off all LEDs*/
	 IOWR_ALTERA_AVALON_PIO_DATA(LED_BASE, 0x00);
   42230:	0007883a 	mov	r3,zero
   42234:	00800234 	movhi	r2,8
   42238:	10848404 	addi	r2,r2,4624
   4223c:	10c00035 	stwio	r3,0(r2)

	 /*initialize SPI transmission*/
	 IOWR_ALTERA_AVALON_PIO_DATA(CS_BASE, 1); // ~CS low
   42240:	00c00044 	movi	r3,1
   42244:	00800234 	movhi	r2,8
   42248:	10847404 	addi	r2,r2,4560
   4224c:	10c00035 	stwio	r3,0(r2)
	 IOWR_ALTERA_AVALON_PIO_DATA(SCLK_BASE, 0); // Initialize SCLK to high
   42250:	0007883a 	mov	r3,zero
   42254:	00800234 	movhi	r2,8
   42258:	10847004 	addi	r2,r2,4544
   4225c:	10c00035 	stwio	r3,0(r2)
}
   42260:	e037883a 	mov	sp,fp
   42264:	dfc00117 	ldw	ra,4(sp)
   42268:	df000017 	ldw	fp,0(sp)
   4226c:	dec00204 	addi	sp,sp,8
   42270:	f800283a 	ret

00042274 <main>:
to verify. Also take advantage of the data exporting via UART (see the example in Lecture Note 1 about
transferring a chunk of data to Matlab via UART), use the appropriate Matlab command to plot the 256
most recent output samples in the time domain, as well as the FFT magnitudes of these 256 samples.
 *
 * */
int main(void) {
   42274:	defefd04 	addi	sp,sp,-1036
   42278:	dfc10215 	stw	ra,1032(sp)
   4227c:	df010115 	stw	fp,1028(sp)
   42280:	df010104 	addi	fp,sp,1028
	 system_initialization();
   42284:	00420200 	call	42020 <system_initialization>
     // set frequency
	 sampleFrequency = 0x000C; //8k
   42288:	00800304 	movi	r2,12
   4228c:	d0a00915 	stw	r2,-32732(gp)
	 //sampleFrequency = 0x0019; //32k
	 //sampleFrequency = 0x0023; //44.1k
	 //sampleFrequency = 0x0001; //48k
	 aic23_demo[8] = sampleFrequency;
   42290:	d0a00917 	ldw	r2,-32732(gp)
   42294:	1007883a 	mov	r3,r2
   42298:	00800174 	movhi	r2,5
   4229c:	10936704 	addi	r2,r2,19868
   422a0:	10c00815 	stw	r3,32(r2)
	 AIC23_demo();
   422a4:	00403340 	call	40334 <AIC23_demo>

	 int UARTData[256];
	 int i;
	 for(i=0; i<256; i++){
   422a8:	e03eff15 	stw	zero,-1028(fp)
   422ac:	00003506 	br	42384 <main+0x110>
		 UARTData[i] = (int) 1000 * sin(2*PI*i/256);
   422b0:	e13eff17 	ldw	r4,-1028(fp)
   422b4:	0047d800 	call	47d80 <__floatsidf>
   422b8:	100b883a 	mov	r5,r2
   422bc:	180d883a 	mov	r6,r3
   422c0:	2809883a 	mov	r4,r5
   422c4:	300b883a 	mov	r5,r6
   422c8:	01bf22f4 	movhi	r6,64651
   422cc:	31801e84 	addi	r6,r6,122
   422d0:	01d00674 	movhi	r7,16409
   422d4:	39c87e84 	addi	r7,r7,8698
   422d8:	0046d040 	call	46d04 <__muldf3>
   422dc:	1009883a 	mov	r4,r2
   422e0:	180b883a 	mov	r5,r3
   422e4:	2005883a 	mov	r2,r4
   422e8:	2807883a 	mov	r3,r5
   422ec:	1009883a 	mov	r4,r2
   422f0:	180b883a 	mov	r5,r3
   422f4:	000d883a 	mov	r6,zero
   422f8:	01d01c34 	movhi	r7,16496
   422fc:	00462d40 	call	462d4 <__divdf3>
   42300:	1009883a 	mov	r4,r2
   42304:	180b883a 	mov	r5,r3
   42308:	2005883a 	mov	r2,r4
   4230c:	2807883a 	mov	r3,r5
   42310:	1009883a 	mov	r4,r2
   42314:	180b883a 	mov	r5,r3
   42318:	00429840 	call	42984 <sin>
   4231c:	100b883a 	mov	r5,r2
   42320:	180d883a 	mov	r6,r3
   42324:	2809883a 	mov	r4,r5
   42328:	300b883a 	mov	r5,r6
   4232c:	000d883a 	mov	r6,zero
   42330:	01d023f4 	movhi	r7,16527
   42334:	39d00004 	addi	r7,r7,16384
   42338:	0046d040 	call	46d04 <__muldf3>
   4233c:	1009883a 	mov	r4,r2
   42340:	180b883a 	mov	r5,r3
   42344:	2005883a 	mov	r2,r4
   42348:	2807883a 	mov	r3,r5
   4234c:	1009883a 	mov	r4,r2
   42350:	180b883a 	mov	r5,r3
   42354:	0047cf80 	call	47cf8 <__fixdfsi>
   42358:	1007883a 	mov	r3,r2
   4235c:	e0beff17 	ldw	r2,-1028(fp)
   42360:	1085883a 	add	r2,r2,r2
   42364:	1085883a 	add	r2,r2,r2
   42368:	e13eff04 	addi	r4,fp,-1028
   4236c:	2085883a 	add	r2,r4,r2
   42370:	10800104 	addi	r2,r2,4
   42374:	10c00015 	stw	r3,0(r2)
	 aic23_demo[8] = sampleFrequency;
	 AIC23_demo();

	 int UARTData[256];
	 int i;
	 for(i=0; i<256; i++){
   42378:	e0beff17 	ldw	r2,-1028(fp)
   4237c:	10800044 	addi	r2,r2,1
   42380:	e0beff15 	stw	r2,-1028(fp)
   42384:	e0beff17 	ldw	r2,-1028(fp)
   42388:	10804010 	cmplti	r2,r2,256
   4238c:	103fc81e 	bne	r2,zero,422b0 <__alt_data_end+0xfffd02b0>
		 UARTData[i] = (int) 1000 * sin(2*PI*i/256);
		 //UARTData[ii] = sine_table[ii%10];
	 }
	 i = 0;
   42390:	e03eff15 	stw	zero,-1028(fp)
	 /*Your main infinity while loop*/
	 while(1){
		 if (uartStartSendFlag) {
   42394:	d0a74717 	ldw	r2,-25316(gp)
   42398:	10001226 	beq	r2,zero,423e4 <main+0x170>
			 for (i = 0; i<256; i++) {
   4239c:	e03eff15 	stw	zero,-1028(fp)
   423a0:	00000c06 	br	423d4 <main+0x160>
				uart_sendInt16(UARTData[i]);
   423a4:	e0beff17 	ldw	r2,-1028(fp)
   423a8:	1085883a 	add	r2,r2,r2
   423ac:	1085883a 	add	r2,r2,r2
   423b0:	e0feff04 	addi	r3,fp,-1028
   423b4:	1885883a 	add	r2,r3,r2
   423b8:	10800104 	addi	r2,r2,4
   423bc:	10800017 	ldw	r2,0(r2)
   423c0:	1009883a 	mov	r4,r2
   423c4:	00426700 	call	42670 <uart_sendInt16>
	 }
	 i = 0;
	 /*Your main infinity while loop*/
	 while(1){
		 if (uartStartSendFlag) {
			 for (i = 0; i<256; i++) {
   423c8:	e0beff17 	ldw	r2,-1028(fp)
   423cc:	10800044 	addi	r2,r2,1
   423d0:	e0beff15 	stw	r2,-1028(fp)
   423d4:	e0beff17 	ldw	r2,-1028(fp)
   423d8:	10804010 	cmplti	r2,r2,256
   423dc:	103ff11e 	bne	r2,zero,423a4 <__alt_data_end+0xfffd03a4>
				uart_sendInt16(UARTData[i]);
			 }
			 uartStartSendFlag = 0;
   423e0:	d0274715 	stw	zero,-25316(gp)
		 }

		 if(IORD_ALTERA_AVALON_PIO_DATA(SWITCH0_BASE) == 1) // if DIP switch #0 on
   423e4:	00800234 	movhi	r2,8
   423e8:	10848004 	addi	r2,r2,4608
   423ec:	10800037 	ldwio	r2,0(r2)
   423f0:	10800058 	cmpnei	r2,r2,1
   423f4:	1000241e 	bne	r2,zero,42488 <main+0x214>
		 {
			 IOWR_ALTERA_AVALON_PIO_DATA(LED_BASE, 0x01); //turn LED #0 ON
   423f8:	00c00044 	movi	r3,1
   423fc:	00800234 	movhi	r2,8
   42400:	10848404 	addi	r2,r2,4624
   42404:	10c00035 	stwio	r3,0(r2)
			 IOWR_ALTERA_AVALON_PIO_DATA(LEFTSENDDATA_BASE, gain*sine_table[loop]); //output to AIC23 D/A
   42408:	d0a00b0b 	ldhu	r2,-32724(gp)
   4240c:	113fffcc 	andi	r4,r2,65535
   42410:	2120001c 	xori	r4,r4,32768
   42414:	21200004 	addi	r4,r4,-32768
   42418:	d0a74b0b 	ldhu	r2,-25300(gp)
   4241c:	10ffffcc 	andi	r3,r2,65535
   42420:	18e0001c 	xori	r3,r3,32768
   42424:	18e00004 	addi	r3,r3,-32768
   42428:	00800174 	movhi	r2,5
   4242c:	10937104 	addi	r2,r2,19908
   42430:	18c7883a 	add	r3,r3,r3
   42434:	10c5883a 	add	r2,r2,r3
   42438:	1080000b 	ldhu	r2,0(r2)
   4243c:	10bfffcc 	andi	r2,r2,65535
   42440:	10a0001c 	xori	r2,r2,32768
   42444:	10a00004 	addi	r2,r2,-32768
   42448:	2087383a 	mul	r3,r4,r2
   4244c:	00800234 	movhi	r2,8
   42450:	10842004 	addi	r2,r2,4224
   42454:	10c00035 	stwio	r3,0(r2)
			 if (loop < 9) ++loop; //check for end of table
   42458:	d0a74b0b 	ldhu	r2,-25300(gp)
   4245c:	10bfffcc 	andi	r2,r2,65535
   42460:	10a0001c 	xori	r2,r2,32768
   42464:	10a00004 	addi	r2,r2,-32768
   42468:	10800248 	cmpgei	r2,r2,9
   4246c:	1000041e 	bne	r2,zero,42480 <main+0x20c>
   42470:	d0a74b0b 	ldhu	r2,-25300(gp)
   42474:	10800044 	addi	r2,r2,1
   42478:	d0a74b0d 	sth	r2,-25300(gp)
   4247c:	00000606 	br	42498 <main+0x224>
			 else loop = 0; //reinit loop index
   42480:	d0274b0d 	sth	zero,-25300(gp)
   42484:	003fc306 	br	42394 <__alt_data_end+0xfffd0394>

		 }
		 else IOWR_ALTERA_AVALON_PIO_DATA(LED_BASE, 0x00);
   42488:	0007883a 	mov	r3,zero
   4248c:	00800234 	movhi	r2,8
   42490:	10848404 	addi	r2,r2,4624
   42494:	10c00035 	stwio	r3,0(r2)
	 }
   42498:	003fbe06 	br	42394 <__alt_data_end+0xfffd0394>

0004249c <spi_send>:

#include "altera_avalon_pio_regs.h"
#include "system.h"
#include "delay.h"

void spi_send(unsigned int address, unsigned int data){
   4249c:	defffb04 	addi	sp,sp,-20
   424a0:	dfc00415 	stw	ra,16(sp)
   424a4:	df000315 	stw	fp,12(sp)
   424a8:	df000304 	addi	fp,sp,12
   424ac:	e13ffe15 	stw	r4,-8(fp)
   424b0:	e17fff15 	stw	r5,-4(fp)
	int i = 0;
   424b4:	e03ffd15 	stw	zero,-12(fp)

	IOWR_ALTERA_AVALON_PIO_DATA(CS_BASE, 0); // Begin
   424b8:	0007883a 	mov	r3,zero
   424bc:	00800234 	movhi	r2,8
   424c0:	10847404 	addi	r2,r2,4560
   424c4:	10c00035 	stwio	r3,0(r2)
	delay(150);
   424c8:	01002584 	movi	r4,150
   424cc:	00412800 	call	41280 <delay>
	for(i = 0; i < 7; i++){
   424d0:	e03ffd15 	stw	zero,-12(fp)
   424d4:	00002006 	br	42558 <spi_send+0xbc>
		if((address & 0x40) != 0){
   424d8:	e0bffe17 	ldw	r2,-8(fp)
   424dc:	1080100c 	andi	r2,r2,64
   424e0:	10000526 	beq	r2,zero,424f8 <spi_send+0x5c>
			IOWR_ALTERA_AVALON_PIO_DATA(SDIN_BASE, 1);
   424e4:	00c00044 	movi	r3,1
   424e8:	00800234 	movhi	r2,8
   424ec:	10846c04 	addi	r2,r2,4528
   424f0:	10c00035 	stwio	r3,0(r2)
   424f4:	00000406 	br	42508 <spi_send+0x6c>
			//printf("1");
		}else{
			IOWR_ALTERA_AVALON_PIO_DATA(SDIN_BASE, 0);
   424f8:	0007883a 	mov	r3,zero
   424fc:	00800234 	movhi	r2,8
   42500:	10846c04 	addi	r2,r2,4528
   42504:	10c00035 	stwio	r3,0(r2)
			//printf("0");
		}
		delay(1000);
   42508:	0100fa04 	movi	r4,1000
   4250c:	00412800 	call	41280 <delay>
		IOWR_ALTERA_AVALON_PIO_DATA(SCLK_BASE, 1);
   42510:	00c00044 	movi	r3,1
   42514:	00800234 	movhi	r2,8
   42518:	10847004 	addi	r2,r2,4544
   4251c:	10c00035 	stwio	r3,0(r2)
		delay(1000);
   42520:	0100fa04 	movi	r4,1000
   42524:	00412800 	call	41280 <delay>
		IOWR_ALTERA_AVALON_PIO_DATA(SCLK_BASE, 0);
   42528:	0007883a 	mov	r3,zero
   4252c:	00800234 	movhi	r2,8
   42530:	10847004 	addi	r2,r2,4544
   42534:	10c00035 	stwio	r3,0(r2)
		delay(1000);
   42538:	0100fa04 	movi	r4,1000
   4253c:	00412800 	call	41280 <delay>

		address <<= 1;
   42540:	e0bffe17 	ldw	r2,-8(fp)
   42544:	1085883a 	add	r2,r2,r2
   42548:	e0bffe15 	stw	r2,-8(fp)
void spi_send(unsigned int address, unsigned int data){
	int i = 0;

	IOWR_ALTERA_AVALON_PIO_DATA(CS_BASE, 0); // Begin
	delay(150);
	for(i = 0; i < 7; i++){
   4254c:	e0bffd17 	ldw	r2,-12(fp)
   42550:	10800044 	addi	r2,r2,1
   42554:	e0bffd15 	stw	r2,-12(fp)
   42558:	e0bffd17 	ldw	r2,-12(fp)
   4255c:	108001d0 	cmplti	r2,r2,7
   42560:	103fdd1e 	bne	r2,zero,424d8 <__alt_data_end+0xfffd04d8>
		delay(1000);

		address <<= 1;
	}

	for(i = 0; i < 9; i++){
   42564:	e03ffd15 	stw	zero,-12(fp)
   42568:	00002006 	br	425ec <spi_send+0x150>
		if((data & 0x100) != 0){
   4256c:	e0bfff17 	ldw	r2,-4(fp)
   42570:	1080400c 	andi	r2,r2,256
   42574:	10000526 	beq	r2,zero,4258c <spi_send+0xf0>
			IOWR_ALTERA_AVALON_PIO_DATA(SDIN_BASE, 1);
   42578:	00c00044 	movi	r3,1
   4257c:	00800234 	movhi	r2,8
   42580:	10846c04 	addi	r2,r2,4528
   42584:	10c00035 	stwio	r3,0(r2)
   42588:	00000406 	br	4259c <spi_send+0x100>
			//printf("1");
		}else{
			IOWR_ALTERA_AVALON_PIO_DATA(SDIN_BASE, 0);
   4258c:	0007883a 	mov	r3,zero
   42590:	00800234 	movhi	r2,8
   42594:	10846c04 	addi	r2,r2,4528
   42598:	10c00035 	stwio	r3,0(r2)
			//printf("0");
		}
		delay(1000);
   4259c:	0100fa04 	movi	r4,1000
   425a0:	00412800 	call	41280 <delay>
		IOWR_ALTERA_AVALON_PIO_DATA(SCLK_BASE, 1);
   425a4:	00c00044 	movi	r3,1
   425a8:	00800234 	movhi	r2,8
   425ac:	10847004 	addi	r2,r2,4544
   425b0:	10c00035 	stwio	r3,0(r2)
		delay(1000);
   425b4:	0100fa04 	movi	r4,1000
   425b8:	00412800 	call	41280 <delay>
		IOWR_ALTERA_AVALON_PIO_DATA(SCLK_BASE, 0);
   425bc:	0007883a 	mov	r3,zero
   425c0:	00800234 	movhi	r2,8
   425c4:	10847004 	addi	r2,r2,4544
   425c8:	10c00035 	stwio	r3,0(r2)
		delay(1000);
   425cc:	0100fa04 	movi	r4,1000
   425d0:	00412800 	call	41280 <delay>

		data <<= 1;
   425d4:	e0bfff17 	ldw	r2,-4(fp)
   425d8:	1085883a 	add	r2,r2,r2
   425dc:	e0bfff15 	stw	r2,-4(fp)
		delay(1000);

		address <<= 1;
	}

	for(i = 0; i < 9; i++){
   425e0:	e0bffd17 	ldw	r2,-12(fp)
   425e4:	10800044 	addi	r2,r2,1
   425e8:	e0bffd15 	stw	r2,-12(fp)
   425ec:	e0bffd17 	ldw	r2,-12(fp)
   425f0:	10800250 	cmplti	r2,r2,9
   425f4:	103fdd1e 	bne	r2,zero,4256c <__alt_data_end+0xfffd056c>
		delay(1000);

		data <<= 1;
	}

	IOWR_ALTERA_AVALON_PIO_DATA(CS_BASE, 1); // Latches word to AIC
   425f8:	00c00044 	movi	r3,1
   425fc:	00800234 	movhi	r2,8
   42600:	10847404 	addi	r2,r2,4560
   42604:	10c00035 	stwio	r3,0(r2)
	//IOWR_ALTERA_AVALON_PIO_DATA(SCLK_BASE, 1);
}
   42608:	e037883a 	mov	sp,fp
   4260c:	dfc00117 	ldw	ra,4(sp)
   42610:	df000017 	ldw	fp,0(sp)
   42614:	dec00204 	addi	sp,sp,8
   42618:	f800283a 	ret

0004261c <uart_sendByte>:

int counter = 0;

/*-------------------------- Send data---------------------------*/
/*Send integer value through UART*/
void uart_sendByte(char data){
   4261c:	defffd04 	addi	sp,sp,-12
   42620:	dfc00215 	stw	ra,8(sp)
   42624:	df000115 	stw	fp,4(sp)
   42628:	df000104 	addi	fp,sp,4
   4262c:	2005883a 	mov	r2,r4
   42630:	e0bfff05 	stb	r2,-4(fp)
	IOWR_ALTERA_AVALON_UART_TXDATA(UART_BASE, data);
   42634:	e0ffff07 	ldb	r3,-4(fp)
   42638:	00800234 	movhi	r2,8
   4263c:	10840104 	addi	r2,r2,4100
   42640:	10c00035 	stwio	r3,0(r2)
	delay(UART_SEND_DELAY); //not sure about delay parameter
   42644:	0100e104 	movi	r4,900
   42648:	00412800 	call	41280 <delay>
	IOWR_ALTERA_AVALON_UART_TXDATA(UART_BASE, '\n');
   4264c:	00c00284 	movi	r3,10
   42650:	00800234 	movhi	r2,8
   42654:	10840104 	addi	r2,r2,4100
   42658:	10c00035 	stwio	r3,0(r2)
}
   4265c:	e037883a 	mov	sp,fp
   42660:	dfc00117 	ldw	ra,4(sp)
   42664:	df000017 	ldw	fp,0(sp)
   42668:	dec00204 	addi	sp,sp,8
   4266c:	f800283a 	ret

00042670 <uart_sendInt16>:

/*Send integer value through UART  -> Higher 8 bits first */
void uart_sendInt16(alt_16 data){
   42670:	defffd04 	addi	sp,sp,-12
   42674:	dfc00215 	stw	ra,8(sp)
   42678:	df000115 	stw	fp,4(sp)
   4267c:	df000104 	addi	fp,sp,4
   42680:	2005883a 	mov	r2,r4
   42684:	e0bfff0d 	sth	r2,-4(fp)
	IOWR_ALTERA_AVALON_UART_TXDATA(UART_BASE, data & 0xFF);
   42688:	e0bfff0b 	ldhu	r2,-4(fp)
   4268c:	10bfffcc 	andi	r2,r2,65535
   42690:	10c03fcc 	andi	r3,r2,255
   42694:	00800234 	movhi	r2,8
   42698:	10840104 	addi	r2,r2,4100
   4269c:	10c00035 	stwio	r3,0(r2)
	delay(UART_SEND_DELAY);
   426a0:	0100e104 	movi	r4,900
   426a4:	00412800 	call	41280 <delay>
	IOWR_ALTERA_AVALON_UART_TXDATA(UART_BASE, data >> 8);
   426a8:	e0bfff0f 	ldh	r2,-4(fp)
   426ac:	1005d23a 	srai	r2,r2,8
   426b0:	10ffffcc 	andi	r3,r2,65535
   426b4:	18e0001c 	xori	r3,r3,32768
   426b8:	18e00004 	addi	r3,r3,-32768
   426bc:	00800234 	movhi	r2,8
   426c0:	10840104 	addi	r2,r2,4100
   426c4:	10c00035 	stwio	r3,0(r2)
	delay(UART_SEND_DELAY);
   426c8:	0100e104 	movi	r4,900
   426cc:	00412800 	call	41280 <delay>

}
   426d0:	e037883a 	mov	sp,fp
   426d4:	dfc00117 	ldw	ra,4(sp)
   426d8:	df000017 	ldw	fp,0(sp)
   426dc:	dec00204 	addi	sp,sp,8
   426e0:	f800283a 	ret

000426e4 <uart_sendFloat>:



void uart_sendFloat(float data){
   426e4:	defff804 	addi	sp,sp,-32
   426e8:	dfc00715 	stw	ra,28(sp)
   426ec:	df000615 	stw	fp,24(sp)
   426f0:	df000604 	addi	fp,sp,24
   426f4:	e13fff15 	stw	r4,-4(fp)
	char number[10];
	int i = 0;
   426f8:	e03ffb15 	stw	zero,-20(fp)
	snprintf(number, sizeof(number), "%f", data);
   426fc:	e13fff17 	ldw	r4,-4(fp)
   42700:	0047e500 	call	47e50 <__extendsfdf2>
   42704:	1009883a 	mov	r4,r2
   42708:	180b883a 	mov	r5,r3
   4270c:	e0bffc04 	addi	r2,fp,-16
   42710:	d9400015 	stw	r5,0(sp)
   42714:	200f883a 	mov	r7,r4
   42718:	1009883a 	mov	r4,r2
   4271c:	01400284 	movi	r5,10
   42720:	01800174 	movhi	r6,5
   42724:	31921904 	addi	r6,r6,18532
   42728:	00481580 	call	48158 <snprintf>
	while(i < 10){
   4272c:	00000f06 	br	4276c <uart_sendFloat+0x88>
		IOWR_ALTERA_AVALON_UART_TXDATA(UART_BASE, number[i]);
   42730:	e0fffc04 	addi	r3,fp,-16
   42734:	e0bffb17 	ldw	r2,-20(fp)
   42738:	1885883a 	add	r2,r3,r2
   4273c:	10800003 	ldbu	r2,0(r2)
   42740:	10c03fcc 	andi	r3,r2,255
   42744:	18c0201c 	xori	r3,r3,128
   42748:	18ffe004 	addi	r3,r3,-128
   4274c:	00800234 	movhi	r2,8
   42750:	10840104 	addi	r2,r2,4100
   42754:	10c00035 	stwio	r3,0(r2)
		delay(UART_SEND_DELAY); //not sure about delay parameter
   42758:	0100e104 	movi	r4,900
   4275c:	00412800 	call	41280 <delay>
		i++;
   42760:	e0bffb17 	ldw	r2,-20(fp)
   42764:	10800044 	addi	r2,r2,1
   42768:	e0bffb15 	stw	r2,-20(fp)

void uart_sendFloat(float data){
	char number[10];
	int i = 0;
	snprintf(number, sizeof(number), "%f", data);
	while(i < 10){
   4276c:	e0bffb17 	ldw	r2,-20(fp)
   42770:	10800290 	cmplti	r2,r2,10
   42774:	103fee1e 	bne	r2,zero,42730 <__alt_data_end+0xfffd0730>
		IOWR_ALTERA_AVALON_UART_TXDATA(UART_BASE, number[i]);
		delay(UART_SEND_DELAY); //not sure about delay parameter
		i++;
	}
	IOWR_ALTERA_AVALON_UART_TXDATA(UART_BASE, '\n');
   42778:	00c00284 	movi	r3,10
   4277c:	00800234 	movhi	r2,8
   42780:	10840104 	addi	r2,r2,4100
   42784:	10c00035 	stwio	r3,0(r2)

}
   42788:	e037883a 	mov	sp,fp
   4278c:	dfc00117 	ldw	ra,4(sp)
   42790:	df000017 	ldw	fp,0(sp)
   42794:	dec00204 	addi	sp,sp,8
   42798:	f800283a 	ret

0004279c <uart_SendLeftBuff>:
//		if (++RxHead > (RX_BUFFER_SIZE-1)) RxHead = 0;
//	}
//}

/*Send the whole buffer to the PC through UART*/
void uart_SendLeftBuff(void){
   4279c:	defffd04 	addi	sp,sp,-12
   427a0:	dfc00215 	stw	ra,8(sp)
   427a4:	df000115 	stw	fp,4(sp)
   427a8:	df000104 	addi	fp,sp,4
	int temp;
	temp = leftCount;
   427ac:	008001b4 	movhi	r2,6
   427b0:	10a19504 	addi	r2,r2,-31148
   427b4:	10800017 	ldw	r2,0(r2)
   427b8:	e0bfff15 	stw	r2,-4(fp)
	for (counter = temp; counter < (BUFFERSIZE + temp); counter++){
   427bc:	e0bfff17 	ldw	r2,-4(fp)
   427c0:	d0a74d15 	stw	r2,-25292(gp)
   427c4:	00001206 	br	42810 <uart_SendLeftBuff+0x74>
		uart_sendInt16(leftChannelData[(counter % BUFFERSIZE)]);
   427c8:	d0a74d17 	ldw	r2,-25292(gp)
   427cc:	1009883a 	mov	r4,r2
   427d0:	014006c4 	movi	r5,27
   427d4:	0044b540 	call	44b54 <__modsi3>
   427d8:	1007883a 	mov	r3,r2
   427dc:	008001b4 	movhi	r2,6
   427e0:	10a23704 	addi	r2,r2,-30500
   427e4:	18c7883a 	add	r3,r3,r3
   427e8:	10c5883a 	add	r2,r2,r3
   427ec:	1080000b 	ldhu	r2,0(r2)
   427f0:	10bfffcc 	andi	r2,r2,65535
   427f4:	10a0001c 	xori	r2,r2,32768
   427f8:	10a00004 	addi	r2,r2,-32768
   427fc:	1009883a 	mov	r4,r2
   42800:	00426700 	call	42670 <uart_sendInt16>

/*Send the whole buffer to the PC through UART*/
void uart_SendLeftBuff(void){
	int temp;
	temp = leftCount;
	for (counter = temp; counter < (BUFFERSIZE + temp); counter++){
   42804:	d0a74d17 	ldw	r2,-25292(gp)
   42808:	10800044 	addi	r2,r2,1
   4280c:	d0a74d15 	stw	r2,-25292(gp)
   42810:	e0bfff17 	ldw	r2,-4(fp)
   42814:	108006c4 	addi	r2,r2,27
   42818:	d0e74d17 	ldw	r3,-25292(gp)
   4281c:	18bfea16 	blt	r3,r2,427c8 <__alt_data_end+0xfffd07c8>
		uart_sendInt16(leftChannelData[(counter % BUFFERSIZE)]);
	}
}
   42820:	e037883a 	mov	sp,fp
   42824:	dfc00117 	ldw	ra,4(sp)
   42828:	df000017 	ldw	fp,0(sp)
   4282c:	dec00204 	addi	sp,sp,8
   42830:	f800283a 	ret

00042834 <uart_SendTestBuff>:

/*Send the whole testing 1000 data buffer to the PC through UART*/
void uart_SendTestBuff(void){
   42834:	defffd04 	addi	sp,sp,-12
   42838:	dfc00215 	stw	ra,8(sp)
   4283c:	df000115 	stw	fp,4(sp)
   42840:	df000104 	addi	fp,sp,4
	int temp;
	temp = lefttestCount;
   42844:	008001b4 	movhi	r2,6
   42848:	10a19604 	addi	r2,r2,-31144
   4284c:	10800017 	ldw	r2,0(r2)
   42850:	e0bfff15 	stw	r2,-4(fp)
	for (counter = temp; counter < (256 + temp); counter++){
   42854:	e0bfff17 	ldw	r2,-4(fp)
   42858:	d0a74d15 	stw	r2,-25292(gp)
   4285c:	00001706 	br	428bc <uart_SendTestBuff+0x88>
		uart_sendInt16(datatest[counter % 256]);
   42860:	d0e74d17 	ldw	r3,-25292(gp)
   42864:	00a00034 	movhi	r2,32768
   42868:	10803fc4 	addi	r2,r2,255
   4286c:	1884703a 	and	r2,r3,r2
   42870:	1000040e 	bge	r2,zero,42884 <uart_SendTestBuff+0x50>
   42874:	10bfffc4 	addi	r2,r2,-1
   42878:	00ffc004 	movi	r3,-256
   4287c:	10c4b03a 	or	r2,r2,r3
   42880:	10800044 	addi	r2,r2,1
   42884:	1007883a 	mov	r3,r2
   42888:	008001b4 	movhi	r2,6
   4288c:	10a1b704 	addi	r2,r2,-31012
   42890:	18c7883a 	add	r3,r3,r3
   42894:	10c5883a 	add	r2,r2,r3
   42898:	1080000b 	ldhu	r2,0(r2)
   4289c:	10bfffcc 	andi	r2,r2,65535
   428a0:	10a0001c 	xori	r2,r2,32768
   428a4:	10a00004 	addi	r2,r2,-32768
   428a8:	1009883a 	mov	r4,r2
   428ac:	00426700 	call	42670 <uart_sendInt16>

/*Send the whole testing 1000 data buffer to the PC through UART*/
void uart_SendTestBuff(void){
	int temp;
	temp = lefttestCount;
	for (counter = temp; counter < (256 + temp); counter++){
   428b0:	d0a74d17 	ldw	r2,-25292(gp)
   428b4:	10800044 	addi	r2,r2,1
   428b8:	d0a74d15 	stw	r2,-25292(gp)
   428bc:	e0bfff17 	ldw	r2,-4(fp)
   428c0:	10804004 	addi	r2,r2,256
   428c4:	d0e74d17 	ldw	r3,-25292(gp)
   428c8:	18bfe516 	blt	r3,r2,42860 <__alt_data_end+0xfffd0860>
		uart_sendInt16(datatest[counter % 256]);
	}
}
   428cc:	e037883a 	mov	sp,fp
   428d0:	dfc00117 	ldw	ra,4(sp)
   428d4:	df000017 	ldw	fp,0(sp)
   428d8:	dec00204 	addi	sp,sp,8
   428dc:	f800283a 	ret

000428e0 <uart_SendConvBuff>:

/*Send the whole buffer to the PC through UART*/
void uart_SendConvBuff(void){
   428e0:	defffd04 	addi	sp,sp,-12
   428e4:	dfc00215 	stw	ra,8(sp)
   428e8:	df000115 	stw	fp,4(sp)
   428ec:	df000104 	addi	fp,sp,4
	int temp;
	temp = convIndex;
   428f0:	008001b4 	movhi	r2,6
   428f4:	10a19304 	addi	r2,r2,-31156
   428f8:	10800017 	ldw	r2,0(r2)
   428fc:	e0bfff15 	stw	r2,-4(fp)
	for (counter = temp; counter < (CONVBUFFSIZE + temp); counter++){
   42900:	e0bfff17 	ldw	r2,-4(fp)
   42904:	d0a74d15 	stw	r2,-25292(gp)
   42908:	00001506 	br	42960 <uart_SendConvBuff+0x80>
		uart_sendInt16((alt_16)convResultBuffer[counter % (CONVBUFFSIZE)]);
   4290c:	d0a74d17 	ldw	r2,-25292(gp)
   42910:	1009883a 	mov	r4,r2
   42914:	0140fa04 	movi	r5,1000
   42918:	0044b540 	call	44b54 <__modsi3>
   4291c:	1007883a 	mov	r3,r2
   42920:	008001b4 	movhi	r2,6
   42924:	10a34504 	addi	r2,r2,-29420
   42928:	18c7883a 	add	r3,r3,r3
   4292c:	18c7883a 	add	r3,r3,r3
   42930:	10c5883a 	add	r2,r2,r3
   42934:	10c00017 	ldw	r3,0(r2)
   42938:	1809883a 	mov	r4,r3
   4293c:	00459c00 	call	459c0 <__fixsfsi>
   42940:	10bfffcc 	andi	r2,r2,65535
   42944:	10a0001c 	xori	r2,r2,32768
   42948:	10a00004 	addi	r2,r2,-32768
   4294c:	1009883a 	mov	r4,r2
   42950:	00426700 	call	42670 <uart_sendInt16>

/*Send the whole buffer to the PC through UART*/
void uart_SendConvBuff(void){
	int temp;
	temp = convIndex;
	for (counter = temp; counter < (CONVBUFFSIZE + temp); counter++){
   42954:	d0a74d17 	ldw	r2,-25292(gp)
   42958:	10800044 	addi	r2,r2,1
   4295c:	d0a74d15 	stw	r2,-25292(gp)
   42960:	e0bfff17 	ldw	r2,-4(fp)
   42964:	1080fa04 	addi	r2,r2,1000
   42968:	d0e74d17 	ldw	r3,-25292(gp)
   4296c:	18bfe716 	blt	r3,r2,4290c <__alt_data_end+0xfffd090c>
		uart_sendInt16((alt_16)convResultBuffer[counter % (CONVBUFFSIZE)]);
	}
}
   42970:	e037883a 	mov	sp,fp
   42974:	dfc00117 	ldw	ra,4(sp)
   42978:	df000017 	ldw	fp,0(sp)
   4297c:	dec00204 	addi	sp,sp,8
   42980:	f800283a 	ret

00042984 <sin>:
   42984:	00a00034 	movhi	r2,32768
   42988:	defffa04 	addi	sp,sp,-24
   4298c:	10bfffc4 	addi	r2,r2,-1
   42990:	00cffa74 	movhi	r3,16361
   42994:	dfc00515 	stw	ra,20(sp)
   42998:	2884703a 	and	r2,r5,r2
   4299c:	18c87ec4 	addi	r3,r3,8699
   429a0:	280f883a 	mov	r7,r5
   429a4:	1880170e 	bge	r3,r2,42a04 <sin+0x80>
   429a8:	00dffc34 	movhi	r3,32752
   429ac:	18ffffc4 	addi	r3,r3,-1
   429b0:	1880050e 	bge	r3,r2,429c8 <sin+0x44>
   429b4:	200d883a 	mov	r6,r4
   429b8:	00474280 	call	47428 <__subdf3>
   429bc:	dfc00517 	ldw	ra,20(sp)
   429c0:	dec00604 	addi	sp,sp,24
   429c4:	f800283a 	ret
   429c8:	d9800104 	addi	r6,sp,4
   429cc:	0042a740 	call	42a74 <__ieee754_rem_pio2>
   429d0:	108000cc 	andi	r2,r2,3
   429d4:	00c00044 	movi	r3,1
   429d8:	10c01926 	beq	r2,r3,42a40 <sin+0xbc>
   429dc:	01000084 	movi	r4,2
   429e0:	11000f26 	beq	r2,r4,42a20 <sin+0x9c>
   429e4:	10001c26 	beq	r2,zero,42a58 <sin+0xd4>
   429e8:	d9000117 	ldw	r4,4(sp)
   429ec:	d9400217 	ldw	r5,8(sp)
   429f0:	d9800317 	ldw	r6,12(sp)
   429f4:	d9c00417 	ldw	r7,16(sp)
   429f8:	00432100 	call	43210 <__kernel_cos>
   429fc:	18e0003c 	xorhi	r3,r3,32768
   42a00:	003fee06 	br	429bc <__alt_data_end+0xfffd09bc>
   42a04:	d8000015 	stw	zero,0(sp)
   42a08:	000d883a 	mov	r6,zero
   42a0c:	000f883a 	mov	r7,zero
   42a10:	00443dc0 	call	443dc <__kernel_sin>
   42a14:	dfc00517 	ldw	ra,20(sp)
   42a18:	dec00604 	addi	sp,sp,24
   42a1c:	f800283a 	ret
   42a20:	d9000117 	ldw	r4,4(sp)
   42a24:	d9400217 	ldw	r5,8(sp)
   42a28:	d9800317 	ldw	r6,12(sp)
   42a2c:	d9c00417 	ldw	r7,16(sp)
   42a30:	d8c00015 	stw	r3,0(sp)
   42a34:	00443dc0 	call	443dc <__kernel_sin>
   42a38:	18e0003c 	xorhi	r3,r3,32768
   42a3c:	003fdf06 	br	429bc <__alt_data_end+0xfffd09bc>
   42a40:	d9000117 	ldw	r4,4(sp)
   42a44:	d9400217 	ldw	r5,8(sp)
   42a48:	d9800317 	ldw	r6,12(sp)
   42a4c:	d9c00417 	ldw	r7,16(sp)
   42a50:	00432100 	call	43210 <__kernel_cos>
   42a54:	003fd906 	br	429bc <__alt_data_end+0xfffd09bc>
   42a58:	d9000117 	ldw	r4,4(sp)
   42a5c:	d9400217 	ldw	r5,8(sp)
   42a60:	d9800317 	ldw	r6,12(sp)
   42a64:	d9c00417 	ldw	r7,16(sp)
   42a68:	d8c00015 	stw	r3,0(sp)
   42a6c:	00443dc0 	call	443dc <__kernel_sin>
   42a70:	003fd206 	br	429bc <__alt_data_end+0xfffd09bc>

00042a74 <__ieee754_rem_pio2>:
   42a74:	02200034 	movhi	r8,32768
   42a78:	deffea04 	addi	sp,sp,-88
   42a7c:	423fffc4 	addi	r8,r8,-1
   42a80:	00cffa74 	movhi	r3,16361
   42a84:	ddc01315 	stw	r23,76(sp)
   42a88:	dc400d15 	stw	r17,52(sp)
   42a8c:	dfc01515 	stw	ra,84(sp)
   42a90:	df001415 	stw	fp,80(sp)
   42a94:	dd801215 	stw	r22,72(sp)
   42a98:	dd401115 	stw	r21,68(sp)
   42a9c:	dd001015 	stw	r20,64(sp)
   42aa0:	dcc00f15 	stw	r19,60(sp)
   42aa4:	dc800e15 	stw	r18,56(sp)
   42aa8:	dc000c15 	stw	r16,48(sp)
   42aac:	2a2e703a 	and	r23,r5,r8
   42ab0:	18c87ec4 	addi	r3,r3,8699
   42ab4:	2823883a 	mov	r17,r5
   42ab8:	1dc0790e 	bge	r3,r23,42ca0 <__ieee754_rem_pio2+0x22c>
   42abc:	009000f4 	movhi	r2,16387
   42ac0:	10b65ec4 	addi	r2,r2,-9861
   42ac4:	3021883a 	mov	r16,r6
   42ac8:	2027883a 	mov	r19,r4
   42acc:	15c02316 	blt	r2,r23,42b5c <__ieee754_rem_pio2+0xe8>
   42ad0:	01cffe74 	movhi	r7,16377
   42ad4:	39c87ec4 	addi	r7,r7,8699
   42ad8:	01951034 	movhi	r6,21568
   42adc:	0141800e 	bge	zero,r5,430e0 <__ieee754_rem_pio2+0x66c>
   42ae0:	00474280 	call	47428 <__subdf3>
   42ae4:	1025883a 	mov	r18,r2
   42ae8:	008ffe74 	movhi	r2,16377
   42aec:	10887ec4 	addi	r2,r2,8699
   42af0:	1823883a 	mov	r17,r3
   42af4:	b8808426 	beq	r23,r2,42d08 <__ieee754_rem_pio2+0x294>
   42af8:	018698b4 	movhi	r6,6754
   42afc:	01cf7474 	movhi	r7,15825
   42b00:	3198cc44 	addi	r6,r6,25393
   42b04:	39ed1844 	addi	r7,r7,-19359
   42b08:	9009883a 	mov	r4,r18
   42b0c:	180b883a 	mov	r5,r3
   42b10:	00474280 	call	47428 <__subdf3>
   42b14:	100d883a 	mov	r6,r2
   42b18:	180f883a 	mov	r7,r3
   42b1c:	9009883a 	mov	r4,r18
   42b20:	880b883a 	mov	r5,r17
   42b24:	80800015 	stw	r2,0(r16)
   42b28:	80c00115 	stw	r3,4(r16)
   42b2c:	00474280 	call	47428 <__subdf3>
   42b30:	018698b4 	movhi	r6,6754
   42b34:	01cf7474 	movhi	r7,15825
   42b38:	1009883a 	mov	r4,r2
   42b3c:	180b883a 	mov	r5,r3
   42b40:	3198cc44 	addi	r6,r6,25393
   42b44:	39ed1844 	addi	r7,r7,-19359
   42b48:	00474280 	call	47428 <__subdf3>
   42b4c:	80800215 	stw	r2,8(r16)
   42b50:	80c00315 	stw	r3,12(r16)
   42b54:	00800044 	movi	r2,1
   42b58:	00005606 	br	42cb4 <__ieee754_rem_pio2+0x240>
   42b5c:	00904e74 	movhi	r2,16697
   42b60:	10887ec4 	addi	r2,r2,8699
   42b64:	15c0890e 	bge	r2,r23,42d8c <__ieee754_rem_pio2+0x318>
   42b68:	009ffc34 	movhi	r2,32752
   42b6c:	10bfffc4 	addi	r2,r2,-1
   42b70:	15c05c16 	blt	r2,r23,42ce4 <__ieee754_rem_pio2+0x270>
   42b74:	b829d53a 	srai	r20,r23,20
   42b78:	a53efa84 	addi	r20,r20,-1046
   42b7c:	a024953a 	slli	r18,r20,20
   42b80:	bca5c83a 	sub	r18,r23,r18
   42b84:	900b883a 	mov	r5,r18
   42b88:	0047cf80 	call	47cf8 <__fixdfsi>
   42b8c:	1009883a 	mov	r4,r2
   42b90:	0047d800 	call	47d80 <__floatsidf>
   42b94:	9809883a 	mov	r4,r19
   42b98:	900b883a 	mov	r5,r18
   42b9c:	100d883a 	mov	r6,r2
   42ba0:	180f883a 	mov	r7,r3
   42ba4:	d8800215 	stw	r2,8(sp)
   42ba8:	d8c00315 	stw	r3,12(sp)
   42bac:	00474280 	call	47428 <__subdf3>
   42bb0:	000d883a 	mov	r6,zero
   42bb4:	01d05c34 	movhi	r7,16752
   42bb8:	1009883a 	mov	r4,r2
   42bbc:	180b883a 	mov	r5,r3
   42bc0:	0046d040 	call	46d04 <__muldf3>
   42bc4:	180b883a 	mov	r5,r3
   42bc8:	1009883a 	mov	r4,r2
   42bcc:	182b883a 	mov	r21,r3
   42bd0:	102d883a 	mov	r22,r2
   42bd4:	0047cf80 	call	47cf8 <__fixdfsi>
   42bd8:	1009883a 	mov	r4,r2
   42bdc:	0047d800 	call	47d80 <__floatsidf>
   42be0:	100d883a 	mov	r6,r2
   42be4:	180f883a 	mov	r7,r3
   42be8:	b009883a 	mov	r4,r22
   42bec:	a80b883a 	mov	r5,r21
   42bf0:	1027883a 	mov	r19,r2
   42bf4:	1825883a 	mov	r18,r3
   42bf8:	d8800415 	stw	r2,16(sp)
   42bfc:	d8c00515 	stw	r3,20(sp)
   42c00:	00474280 	call	47428 <__subdf3>
   42c04:	1009883a 	mov	r4,r2
   42c08:	180b883a 	mov	r5,r3
   42c0c:	000d883a 	mov	r6,zero
   42c10:	01d05c34 	movhi	r7,16752
   42c14:	0046d040 	call	46d04 <__muldf3>
   42c18:	1009883a 	mov	r4,r2
   42c1c:	180b883a 	mov	r5,r3
   42c20:	000d883a 	mov	r6,zero
   42c24:	000f883a 	mov	r7,zero
   42c28:	d8800615 	stw	r2,24(sp)
   42c2c:	d8c00715 	stw	r3,28(sp)
   42c30:	0046ba00 	call	46ba0 <__eqdf2>
   42c34:	1001491e 	bne	r2,zero,4315c <__ieee754_rem_pio2+0x6e8>
   42c38:	000f883a 	mov	r7,zero
   42c3c:	9809883a 	mov	r4,r19
   42c40:	900b883a 	mov	r5,r18
   42c44:	000d883a 	mov	r6,zero
   42c48:	0046ba00 	call	46ba0 <__eqdf2>
   42c4c:	100f003a 	cmpeq	r7,r2,zero
   42c50:	00800084 	movi	r2,2
   42c54:	11cfc83a 	sub	r7,r2,r7
   42c58:	00800084 	movi	r2,2
   42c5c:	d8800015 	stw	r2,0(sp)
   42c60:	00800174 	movhi	r2,5
   42c64:	10923a04 	addi	r2,r2,18664
   42c68:	d8800115 	stw	r2,4(sp)
   42c6c:	d9000204 	addi	r4,sp,8
   42c70:	800b883a 	mov	r5,r16
   42c74:	a00d883a 	mov	r6,r20
   42c78:	00436b40 	call	436b4 <__kernel_rem_pio2>
   42c7c:	88000d0e 	bge	r17,zero,42cb4 <__ieee754_rem_pio2+0x240>
   42c80:	81000117 	ldw	r4,4(r16)
   42c84:	80c00317 	ldw	r3,12(r16)
   42c88:	0085c83a 	sub	r2,zero,r2
   42c8c:	2120003c 	xorhi	r4,r4,32768
   42c90:	18e0003c 	xorhi	r3,r3,32768
   42c94:	81000115 	stw	r4,4(r16)
   42c98:	80c00315 	stw	r3,12(r16)
   42c9c:	00000506 	br	42cb4 <__ieee754_rem_pio2+0x240>
   42ca0:	31000015 	stw	r4,0(r6)
   42ca4:	31400115 	stw	r5,4(r6)
   42ca8:	30000215 	stw	zero,8(r6)
   42cac:	30000315 	stw	zero,12(r6)
   42cb0:	0005883a 	mov	r2,zero
   42cb4:	dfc01517 	ldw	ra,84(sp)
   42cb8:	df001417 	ldw	fp,80(sp)
   42cbc:	ddc01317 	ldw	r23,76(sp)
   42cc0:	dd801217 	ldw	r22,72(sp)
   42cc4:	dd401117 	ldw	r21,68(sp)
   42cc8:	dd001017 	ldw	r20,64(sp)
   42ccc:	dcc00f17 	ldw	r19,60(sp)
   42cd0:	dc800e17 	ldw	r18,56(sp)
   42cd4:	dc400d17 	ldw	r17,52(sp)
   42cd8:	dc000c17 	ldw	r16,48(sp)
   42cdc:	dec01604 	addi	sp,sp,88
   42ce0:	f800283a 	ret
   42ce4:	200d883a 	mov	r6,r4
   42ce8:	280f883a 	mov	r7,r5
   42cec:	00474280 	call	47428 <__subdf3>
   42cf0:	80800215 	stw	r2,8(r16)
   42cf4:	80800015 	stw	r2,0(r16)
   42cf8:	80c00315 	stw	r3,12(r16)
   42cfc:	80c00115 	stw	r3,4(r16)
   42d00:	0005883a 	mov	r2,zero
   42d04:	003feb06 	br	42cb4 <__alt_data_end+0xfffd0cb4>
   42d08:	01cf7474 	movhi	r7,15825
   42d0c:	9009883a 	mov	r4,r18
   42d10:	39ed1844 	addi	r7,r7,-19359
   42d14:	01869834 	movhi	r6,6752
   42d18:	180b883a 	mov	r5,r3
   42d1c:	00474280 	call	47428 <__subdf3>
   42d20:	018b80f4 	movhi	r6,11779
   42d24:	01cee8f4 	movhi	r7,15267
   42d28:	1009883a 	mov	r4,r2
   42d2c:	180b883a 	mov	r5,r3
   42d30:	319c1cc4 	addi	r6,r6,28787
   42d34:	39c66284 	addi	r7,r7,6538
   42d38:	1025883a 	mov	r18,r2
   42d3c:	1823883a 	mov	r17,r3
   42d40:	00474280 	call	47428 <__subdf3>
   42d44:	100d883a 	mov	r6,r2
   42d48:	180f883a 	mov	r7,r3
   42d4c:	9009883a 	mov	r4,r18
   42d50:	880b883a 	mov	r5,r17
   42d54:	80800015 	stw	r2,0(r16)
   42d58:	80c00115 	stw	r3,4(r16)
   42d5c:	00474280 	call	47428 <__subdf3>
   42d60:	018b80f4 	movhi	r6,11779
   42d64:	01cee8f4 	movhi	r7,15267
   42d68:	1009883a 	mov	r4,r2
   42d6c:	180b883a 	mov	r5,r3
   42d70:	319c1cc4 	addi	r6,r6,28787
   42d74:	39c66284 	addi	r7,r7,6538
   42d78:	00474280 	call	47428 <__subdf3>
   42d7c:	80800215 	stw	r2,8(r16)
   42d80:	80c00315 	stw	r3,12(r16)
   42d84:	00800044 	movi	r2,1
   42d88:	003fca06 	br	42cb4 <__alt_data_end+0xfffd0cb4>
   42d8c:	00446a40 	call	446a4 <fabs>
   42d90:	019b72b4 	movhi	r6,28106
   42d94:	01cff934 	movhi	r7,16356
   42d98:	1009883a 	mov	r4,r2
   42d9c:	180b883a 	mov	r5,r3
   42da0:	31b220c4 	addi	r6,r6,-14205
   42da4:	39d7cc04 	addi	r7,r7,24368
   42da8:	102d883a 	mov	r22,r2
   42dac:	182b883a 	mov	r21,r3
   42db0:	0046d040 	call	46d04 <__muldf3>
   42db4:	000d883a 	mov	r6,zero
   42db8:	01cff834 	movhi	r7,16352
   42dbc:	1009883a 	mov	r4,r2
   42dc0:	180b883a 	mov	r5,r3
   42dc4:	0045a380 	call	45a38 <__adddf3>
   42dc8:	180b883a 	mov	r5,r3
   42dcc:	1009883a 	mov	r4,r2
   42dd0:	0047cf80 	call	47cf8 <__fixdfsi>
   42dd4:	1009883a 	mov	r4,r2
   42dd8:	1025883a 	mov	r18,r2
   42ddc:	0047d800 	call	47d80 <__floatsidf>
   42de0:	01cffe74 	movhi	r7,16377
   42de4:	1009883a 	mov	r4,r2
   42de8:	180b883a 	mov	r5,r3
   42dec:	39c87ec4 	addi	r7,r7,8699
   42df0:	01951034 	movhi	r6,21568
   42df4:	1029883a 	mov	r20,r2
   42df8:	1827883a 	mov	r19,r3
   42dfc:	0046d040 	call	46d04 <__muldf3>
   42e00:	b009883a 	mov	r4,r22
   42e04:	a80b883a 	mov	r5,r21
   42e08:	100d883a 	mov	r6,r2
   42e0c:	180f883a 	mov	r7,r3
   42e10:	00474280 	call	47428 <__subdf3>
   42e14:	018698b4 	movhi	r6,6754
   42e18:	01cf7474 	movhi	r7,15825
   42e1c:	a009883a 	mov	r4,r20
   42e20:	3198cc44 	addi	r6,r6,25393
   42e24:	39ed1844 	addi	r7,r7,-19359
   42e28:	980b883a 	mov	r5,r19
   42e2c:	1039883a 	mov	fp,r2
   42e30:	d8c00815 	stw	r3,32(sp)
   42e34:	0046d040 	call	46d04 <__muldf3>
   42e38:	010007c4 	movi	r4,31
   42e3c:	e017883a 	mov	r11,fp
   42e40:	da800817 	ldw	r10,32(sp)
   42e44:	102d883a 	mov	r22,r2
   42e48:	182b883a 	mov	r21,r3
   42e4c:	24802816 	blt	r4,r18,42ef0 <__ieee754_rem_pio2+0x47c>
   42e50:	927fffc4 	addi	r9,r18,-1
   42e54:	4a53883a 	add	r9,r9,r9
   42e58:	01000174 	movhi	r4,5
   42e5c:	21121a04 	addi	r4,r4,18536
   42e60:	4a53883a 	add	r9,r9,r9
   42e64:	2253883a 	add	r9,r4,r9
   42e68:	49000017 	ldw	r4,0(r9)
   42e6c:	25c02026 	beq	r4,r23,42ef0 <__ieee754_rem_pio2+0x47c>
   42e70:	e009883a 	mov	r4,fp
   42e74:	500b883a 	mov	r5,r10
   42e78:	100d883a 	mov	r6,r2
   42e7c:	180f883a 	mov	r7,r3
   42e80:	da800b15 	stw	r10,44(sp)
   42e84:	df000a15 	stw	fp,40(sp)
   42e88:	00474280 	call	47428 <__subdf3>
   42e8c:	da800b17 	ldw	r10,44(sp)
   42e90:	dac00a17 	ldw	r11,40(sp)
   42e94:	1019883a 	mov	r12,r2
   42e98:	1813883a 	mov	r9,r3
   42e9c:	80800015 	stw	r2,0(r16)
   42ea0:	80c00115 	stw	r3,4(r16)
   42ea4:	600d883a 	mov	r6,r12
   42ea8:	480f883a 	mov	r7,r9
   42eac:	5809883a 	mov	r4,r11
   42eb0:	500b883a 	mov	r5,r10
   42eb4:	da400b15 	stw	r9,44(sp)
   42eb8:	db000a15 	stw	r12,40(sp)
   42ebc:	00474280 	call	47428 <__subdf3>
   42ec0:	1009883a 	mov	r4,r2
   42ec4:	180b883a 	mov	r5,r3
   42ec8:	b00d883a 	mov	r6,r22
   42ecc:	a80f883a 	mov	r7,r21
   42ed0:	00474280 	call	47428 <__subdf3>
   42ed4:	80800215 	stw	r2,8(r16)
   42ed8:	80c00315 	stw	r3,12(r16)
   42edc:	da400b17 	ldw	r9,44(sp)
   42ee0:	db000a17 	ldw	r12,40(sp)
   42ee4:	88009f16 	blt	r17,zero,43164 <__ieee754_rem_pio2+0x6f0>
   42ee8:	9005883a 	mov	r2,r18
   42eec:	003f7106 	br	42cb4 <__alt_data_end+0xfffd0cb4>
   42ef0:	d9400817 	ldw	r5,32(sp)
   42ef4:	e009883a 	mov	r4,fp
   42ef8:	100d883a 	mov	r6,r2
   42efc:	180f883a 	mov	r7,r3
   42f00:	da800b15 	stw	r10,44(sp)
   42f04:	dac00a15 	stw	r11,40(sp)
   42f08:	00474280 	call	47428 <__subdf3>
   42f0c:	1019883a 	mov	r12,r2
   42f10:	1804d53a 	srli	r2,r3,20
   42f14:	b811d53a 	srai	r8,r23,20
   42f18:	1813883a 	mov	r9,r3
   42f1c:	1081ffcc 	andi	r2,r2,2047
   42f20:	80c00115 	stw	r3,4(r16)
   42f24:	83000015 	stw	r12,0(r16)
   42f28:	4085c83a 	sub	r2,r8,r2
   42f2c:	00c00404 	movi	r3,16
   42f30:	da800b17 	ldw	r10,44(sp)
   42f34:	dac00a17 	ldw	r11,40(sp)
   42f38:	18bfda0e 	bge	r3,r2,42ea4 <__alt_data_end+0xfffd0ea4>
   42f3c:	01cf7474 	movhi	r7,15825
   42f40:	39ed1844 	addi	r7,r7,-19359
   42f44:	a009883a 	mov	r4,r20
   42f48:	980b883a 	mov	r5,r19
   42f4c:	01869834 	movhi	r6,6752
   42f50:	da000a15 	stw	r8,40(sp)
   42f54:	0046d040 	call	46d04 <__muldf3>
   42f58:	d9400817 	ldw	r5,32(sp)
   42f5c:	e009883a 	mov	r4,fp
   42f60:	100d883a 	mov	r6,r2
   42f64:	180f883a 	mov	r7,r3
   42f68:	102d883a 	mov	r22,r2
   42f6c:	182b883a 	mov	r21,r3
   42f70:	00474280 	call	47428 <__subdf3>
   42f74:	d9400817 	ldw	r5,32(sp)
   42f78:	e009883a 	mov	r4,fp
   42f7c:	100d883a 	mov	r6,r2
   42f80:	180f883a 	mov	r7,r3
   42f84:	182f883a 	mov	r23,r3
   42f88:	d8800915 	stw	r2,36(sp)
   42f8c:	00474280 	call	47428 <__subdf3>
   42f90:	b00d883a 	mov	r6,r22
   42f94:	a80f883a 	mov	r7,r21
   42f98:	1009883a 	mov	r4,r2
   42f9c:	180b883a 	mov	r5,r3
   42fa0:	00474280 	call	47428 <__subdf3>
   42fa4:	018b80f4 	movhi	r6,11779
   42fa8:	01cee8f4 	movhi	r7,15267
   42fac:	a009883a 	mov	r4,r20
   42fb0:	980b883a 	mov	r5,r19
   42fb4:	319c1cc4 	addi	r6,r6,28787
   42fb8:	39c66284 	addi	r7,r7,6538
   42fbc:	102d883a 	mov	r22,r2
   42fc0:	182b883a 	mov	r21,r3
   42fc4:	0046d040 	call	46d04 <__muldf3>
   42fc8:	b00d883a 	mov	r6,r22
   42fcc:	a80f883a 	mov	r7,r21
   42fd0:	1009883a 	mov	r4,r2
   42fd4:	180b883a 	mov	r5,r3
   42fd8:	00474280 	call	47428 <__subdf3>
   42fdc:	d9000917 	ldw	r4,36(sp)
   42fe0:	b80b883a 	mov	r5,r23
   42fe4:	100d883a 	mov	r6,r2
   42fe8:	180f883a 	mov	r7,r3
   42fec:	102d883a 	mov	r22,r2
   42ff0:	182b883a 	mov	r21,r3
   42ff4:	00474280 	call	47428 <__subdf3>
   42ff8:	1019883a 	mov	r12,r2
   42ffc:	1804d53a 	srli	r2,r3,20
   43000:	da000a17 	ldw	r8,40(sp)
   43004:	83000015 	stw	r12,0(r16)
   43008:	1081ffcc 	andi	r2,r2,2047
   4300c:	4091c83a 	sub	r8,r8,r2
   43010:	80c00115 	stw	r3,4(r16)
   43014:	00800c44 	movi	r2,49
   43018:	1813883a 	mov	r9,r3
   4301c:	1200790e 	bge	r2,r8,43204 <__ieee754_rem_pio2+0x790>
   43020:	01cee8f4 	movhi	r7,15267
   43024:	39c66284 	addi	r7,r7,6538
   43028:	a009883a 	mov	r4,r20
   4302c:	980b883a 	mov	r5,r19
   43030:	018b8034 	movhi	r6,11776
   43034:	0046d040 	call	46d04 <__muldf3>
   43038:	d9000917 	ldw	r4,36(sp)
   4303c:	b80b883a 	mov	r5,r23
   43040:	100d883a 	mov	r6,r2
   43044:	180f883a 	mov	r7,r3
   43048:	102d883a 	mov	r22,r2
   4304c:	182b883a 	mov	r21,r3
   43050:	00474280 	call	47428 <__subdf3>
   43054:	d9000917 	ldw	r4,36(sp)
   43058:	b80b883a 	mov	r5,r23
   4305c:	100d883a 	mov	r6,r2
   43060:	180f883a 	mov	r7,r3
   43064:	d8c00b15 	stw	r3,44(sp)
   43068:	d8800a15 	stw	r2,40(sp)
   4306c:	00474280 	call	47428 <__subdf3>
   43070:	b00d883a 	mov	r6,r22
   43074:	a80f883a 	mov	r7,r21
   43078:	1009883a 	mov	r4,r2
   4307c:	180b883a 	mov	r5,r3
   43080:	00474280 	call	47428 <__subdf3>
   43084:	01894834 	movhi	r6,9504
   43088:	01ce5f34 	movhi	r7,14716
   4308c:	a009883a 	mov	r4,r20
   43090:	980b883a 	mov	r5,r19
   43094:	31927044 	addi	r6,r6,18881
   43098:	39e0e684 	addi	r7,r7,-31846
   4309c:	102d883a 	mov	r22,r2
   430a0:	182b883a 	mov	r21,r3
   430a4:	0046d040 	call	46d04 <__muldf3>
   430a8:	b00d883a 	mov	r6,r22
   430ac:	a80f883a 	mov	r7,r21
   430b0:	1009883a 	mov	r4,r2
   430b4:	180b883a 	mov	r5,r3
   430b8:	00474280 	call	47428 <__subdf3>
   430bc:	dac00a17 	ldw	r11,40(sp)
   430c0:	da800b17 	ldw	r10,44(sp)
   430c4:	102d883a 	mov	r22,r2
   430c8:	182b883a 	mov	r21,r3
   430cc:	5809883a 	mov	r4,r11
   430d0:	500b883a 	mov	r5,r10
   430d4:	100d883a 	mov	r6,r2
   430d8:	180f883a 	mov	r7,r3
   430dc:	003f6a06 	br	42e88 <__alt_data_end+0xfffd0e88>
   430e0:	0045a380 	call	45a38 <__adddf3>
   430e4:	1025883a 	mov	r18,r2
   430e8:	008ffe74 	movhi	r2,16377
   430ec:	10887ec4 	addi	r2,r2,8699
   430f0:	1823883a 	mov	r17,r3
   430f4:	b8802226 	beq	r23,r2,43180 <__ieee754_rem_pio2+0x70c>
   430f8:	018698b4 	movhi	r6,6754
   430fc:	01cf7474 	movhi	r7,15825
   43100:	3198cc44 	addi	r6,r6,25393
   43104:	39ed1844 	addi	r7,r7,-19359
   43108:	9009883a 	mov	r4,r18
   4310c:	180b883a 	mov	r5,r3
   43110:	0045a380 	call	45a38 <__adddf3>
   43114:	100d883a 	mov	r6,r2
   43118:	180f883a 	mov	r7,r3
   4311c:	9009883a 	mov	r4,r18
   43120:	880b883a 	mov	r5,r17
   43124:	80800015 	stw	r2,0(r16)
   43128:	80c00115 	stw	r3,4(r16)
   4312c:	00474280 	call	47428 <__subdf3>
   43130:	018698b4 	movhi	r6,6754
   43134:	01cf7474 	movhi	r7,15825
   43138:	1009883a 	mov	r4,r2
   4313c:	180b883a 	mov	r5,r3
   43140:	3198cc44 	addi	r6,r6,25393
   43144:	39ed1844 	addi	r7,r7,-19359
   43148:	0045a380 	call	45a38 <__adddf3>
   4314c:	80800215 	stw	r2,8(r16)
   43150:	80c00315 	stw	r3,12(r16)
   43154:	00bfffc4 	movi	r2,-1
   43158:	003ed606 	br	42cb4 <__alt_data_end+0xfffd0cb4>
   4315c:	01c000c4 	movi	r7,3
   43160:	003ebd06 	br	42c58 <__alt_data_end+0xfffd0c58>
   43164:	4a60003c 	xorhi	r9,r9,32768
   43168:	18e0003c 	xorhi	r3,r3,32768
   4316c:	83000015 	stw	r12,0(r16)
   43170:	82400115 	stw	r9,4(r16)
   43174:	80c00315 	stw	r3,12(r16)
   43178:	0485c83a 	sub	r2,zero,r18
   4317c:	003ecd06 	br	42cb4 <__alt_data_end+0xfffd0cb4>
   43180:	01cf7474 	movhi	r7,15825
   43184:	9009883a 	mov	r4,r18
   43188:	39ed1844 	addi	r7,r7,-19359
   4318c:	01869834 	movhi	r6,6752
   43190:	180b883a 	mov	r5,r3
   43194:	0045a380 	call	45a38 <__adddf3>
   43198:	018b80f4 	movhi	r6,11779
   4319c:	01cee8f4 	movhi	r7,15267
   431a0:	1009883a 	mov	r4,r2
   431a4:	180b883a 	mov	r5,r3
   431a8:	319c1cc4 	addi	r6,r6,28787
   431ac:	39c66284 	addi	r7,r7,6538
   431b0:	1025883a 	mov	r18,r2
   431b4:	1823883a 	mov	r17,r3
   431b8:	0045a380 	call	45a38 <__adddf3>
   431bc:	100d883a 	mov	r6,r2
   431c0:	180f883a 	mov	r7,r3
   431c4:	9009883a 	mov	r4,r18
   431c8:	880b883a 	mov	r5,r17
   431cc:	80800015 	stw	r2,0(r16)
   431d0:	80c00115 	stw	r3,4(r16)
   431d4:	00474280 	call	47428 <__subdf3>
   431d8:	018b80f4 	movhi	r6,11779
   431dc:	01cee8f4 	movhi	r7,15267
   431e0:	1009883a 	mov	r4,r2
   431e4:	180b883a 	mov	r5,r3
   431e8:	319c1cc4 	addi	r6,r6,28787
   431ec:	39c66284 	addi	r7,r7,6538
   431f0:	0045a380 	call	45a38 <__adddf3>
   431f4:	80800215 	stw	r2,8(r16)
   431f8:	80c00315 	stw	r3,12(r16)
   431fc:	00bfffc4 	movi	r2,-1
   43200:	003eac06 	br	42cb4 <__alt_data_end+0xfffd0cb4>
   43204:	dac00917 	ldw	r11,36(sp)
   43208:	b815883a 	mov	r10,r23
   4320c:	003f2506 	br	42ea4 <__alt_data_end+0xfffd0ea4>

00043210 <__kernel_cos>:
   43210:	defff304 	addi	sp,sp,-52
   43214:	dc000315 	stw	r16,12(sp)
   43218:	04200034 	movhi	r16,32768
   4321c:	843fffc4 	addi	r16,r16,-1
   43220:	008f9034 	movhi	r2,15936
   43224:	df000b15 	stw	fp,44(sp)
   43228:	ddc00a15 	stw	r23,40(sp)
   4322c:	dd800915 	stw	r22,36(sp)
   43230:	dcc00615 	stw	r19,24(sp)
   43234:	dfc00c15 	stw	ra,48(sp)
   43238:	dd400815 	stw	r21,32(sp)
   4323c:	dd000715 	stw	r20,28(sp)
   43240:	dc800515 	stw	r18,20(sp)
   43244:	dc400415 	stw	r17,16(sp)
   43248:	2c20703a 	and	r16,r5,r16
   4324c:	10bfffc4 	addi	r2,r2,-1
   43250:	2827883a 	mov	r19,r5
   43254:	202d883a 	mov	r22,r4
   43258:	302f883a 	mov	r23,r6
   4325c:	3839883a 	mov	fp,r7
   43260:	14007516 	blt	r2,r16,43438 <__kernel_cos+0x228>
   43264:	0047cf80 	call	47cf8 <__fixdfsi>
   43268:	10010f26 	beq	r2,zero,436a8 <__kernel_cos+0x498>
   4326c:	b00d883a 	mov	r6,r22
   43270:	980f883a 	mov	r7,r19
   43274:	b009883a 	mov	r4,r22
   43278:	980b883a 	mov	r5,r19
   4327c:	0046d040 	call	46d04 <__muldf3>
   43280:	01afa234 	movhi	r6,48776
   43284:	01ef6a74 	movhi	r7,48553
   43288:	1009883a 	mov	r4,r2
   4328c:	180b883a 	mov	r5,r3
   43290:	318e3504 	addi	r6,r6,14548
   43294:	39feba44 	addi	r7,r7,-1303
   43298:	102b883a 	mov	r21,r2
   4329c:	1829883a 	mov	r20,r3
   432a0:	0046d040 	call	46d04 <__muldf3>
   432a4:	01af6d74 	movhi	r6,48565
   432a8:	01cf88b4 	movhi	r7,15906
   432ac:	1009883a 	mov	r4,r2
   432b0:	180b883a 	mov	r5,r3
   432b4:	31ac7104 	addi	r6,r6,-20028
   432b8:	39fba784 	addi	r7,r7,-4450
   432bc:	0045a380 	call	45a38 <__adddf3>
   432c0:	1009883a 	mov	r4,r2
   432c4:	180b883a 	mov	r5,r3
   432c8:	a80d883a 	mov	r6,r21
   432cc:	a00f883a 	mov	r7,r20
   432d0:	0046d040 	call	46d04 <__muldf3>
   432d4:	01a02734 	movhi	r6,32924
   432d8:	01cfa4b4 	movhi	r7,16018
   432dc:	1009883a 	mov	r4,r2
   432e0:	180b883a 	mov	r5,r3
   432e4:	3194ab44 	addi	r6,r6,21165
   432e8:	39df93c4 	addi	r7,r7,32335
   432ec:	00474280 	call	47428 <__subdf3>
   432f0:	1009883a 	mov	r4,r2
   432f4:	180b883a 	mov	r5,r3
   432f8:	a80d883a 	mov	r6,r21
   432fc:	a00f883a 	mov	r7,r20
   43300:	0046d040 	call	46d04 <__muldf3>
   43304:	018672f4 	movhi	r6,6603
   43308:	01cfbeb4 	movhi	r7,16122
   4330c:	1009883a 	mov	r4,r2
   43310:	180b883a 	mov	r5,r3
   43314:	31856404 	addi	r6,r6,5520
   43318:	39c06804 	addi	r7,r7,416
   4331c:	0045a380 	call	45a38 <__adddf3>
   43320:	1009883a 	mov	r4,r2
   43324:	180b883a 	mov	r5,r3
   43328:	a80d883a 	mov	r6,r21
   4332c:	a00f883a 	mov	r7,r20
   43330:	0046d040 	call	46d04 <__muldf3>
   43334:	0185b074 	movhi	r6,5825
   43338:	01cfd5f4 	movhi	r7,16215
   4333c:	1009883a 	mov	r4,r2
   43340:	180b883a 	mov	r5,r3
   43344:	31945dc4 	addi	r6,r6,20855
   43348:	39f05b04 	addi	r7,r7,-16020
   4334c:	00474280 	call	47428 <__subdf3>
   43350:	1009883a 	mov	r4,r2
   43354:	180b883a 	mov	r5,r3
   43358:	a80d883a 	mov	r6,r21
   4335c:	a00f883a 	mov	r7,r20
   43360:	0046d040 	call	46d04 <__muldf3>
   43364:	01955574 	movhi	r6,21845
   43368:	01cfe974 	movhi	r7,16293
   4336c:	1009883a 	mov	r4,r2
   43370:	180b883a 	mov	r5,r3
   43374:	31955304 	addi	r6,r6,21836
   43378:	39d55544 	addi	r7,r7,21845
   4337c:	0045a380 	call	45a38 <__adddf3>
   43380:	1009883a 	mov	r4,r2
   43384:	180b883a 	mov	r5,r3
   43388:	a80d883a 	mov	r6,r21
   4338c:	a00f883a 	mov	r7,r20
   43390:	0046d040 	call	46d04 <__muldf3>
   43394:	1017883a 	mov	r11,r2
   43398:	1815883a 	mov	r10,r3
   4339c:	a809883a 	mov	r4,r21
   433a0:	a00b883a 	mov	r5,r20
   433a4:	000d883a 	mov	r6,zero
   433a8:	01cff834 	movhi	r7,16352
   433ac:	da800215 	stw	r10,8(sp)
   433b0:	dac00115 	stw	r11,4(sp)
   433b4:	0046d040 	call	46d04 <__muldf3>
   433b8:	dac00117 	ldw	r11,4(sp)
   433bc:	da800217 	ldw	r10,8(sp)
   433c0:	a809883a 	mov	r4,r21
   433c4:	580d883a 	mov	r6,r11
   433c8:	500f883a 	mov	r7,r10
   433cc:	a00b883a 	mov	r5,r20
   433d0:	1023883a 	mov	r17,r2
   433d4:	1821883a 	mov	r16,r3
   433d8:	0046d040 	call	46d04 <__muldf3>
   433dc:	b009883a 	mov	r4,r22
   433e0:	980b883a 	mov	r5,r19
   433e4:	b80d883a 	mov	r6,r23
   433e8:	e00f883a 	mov	r7,fp
   433ec:	1029883a 	mov	r20,r2
   433f0:	1825883a 	mov	r18,r3
   433f4:	0046d040 	call	46d04 <__muldf3>
   433f8:	a009883a 	mov	r4,r20
   433fc:	900b883a 	mov	r5,r18
   43400:	100d883a 	mov	r6,r2
   43404:	180f883a 	mov	r7,r3
   43408:	00474280 	call	47428 <__subdf3>
   4340c:	8809883a 	mov	r4,r17
   43410:	800b883a 	mov	r5,r16
   43414:	100d883a 	mov	r6,r2
   43418:	180f883a 	mov	r7,r3
   4341c:	00474280 	call	47428 <__subdf3>
   43420:	0009883a 	mov	r4,zero
   43424:	014ffc34 	movhi	r5,16368
   43428:	100d883a 	mov	r6,r2
   4342c:	180f883a 	mov	r7,r3
   43430:	00474280 	call	47428 <__subdf3>
   43434:	00008b06 	br	43664 <__kernel_cos+0x454>
   43438:	200d883a 	mov	r6,r4
   4343c:	280f883a 	mov	r7,r5
   43440:	0046d040 	call	46d04 <__muldf3>
   43444:	01afa234 	movhi	r6,48776
   43448:	01ef6a74 	movhi	r7,48553
   4344c:	318e3504 	addi	r6,r6,14548
   43450:	39feba44 	addi	r7,r7,-1303
   43454:	1009883a 	mov	r4,r2
   43458:	180b883a 	mov	r5,r3
   4345c:	1025883a 	mov	r18,r2
   43460:	1823883a 	mov	r17,r3
   43464:	0046d040 	call	46d04 <__muldf3>
   43468:	01af6d74 	movhi	r6,48565
   4346c:	01cf88b4 	movhi	r7,15906
   43470:	1009883a 	mov	r4,r2
   43474:	180b883a 	mov	r5,r3
   43478:	31ac7104 	addi	r6,r6,-20028
   4347c:	39fba784 	addi	r7,r7,-4450
   43480:	0045a380 	call	45a38 <__adddf3>
   43484:	1009883a 	mov	r4,r2
   43488:	180b883a 	mov	r5,r3
   4348c:	900d883a 	mov	r6,r18
   43490:	880f883a 	mov	r7,r17
   43494:	0046d040 	call	46d04 <__muldf3>
   43498:	01a02734 	movhi	r6,32924
   4349c:	01cfa4b4 	movhi	r7,16018
   434a0:	1009883a 	mov	r4,r2
   434a4:	180b883a 	mov	r5,r3
   434a8:	3194ab44 	addi	r6,r6,21165
   434ac:	39df93c4 	addi	r7,r7,32335
   434b0:	00474280 	call	47428 <__subdf3>
   434b4:	1009883a 	mov	r4,r2
   434b8:	180b883a 	mov	r5,r3
   434bc:	900d883a 	mov	r6,r18
   434c0:	880f883a 	mov	r7,r17
   434c4:	0046d040 	call	46d04 <__muldf3>
   434c8:	018672f4 	movhi	r6,6603
   434cc:	01cfbeb4 	movhi	r7,16122
   434d0:	1009883a 	mov	r4,r2
   434d4:	180b883a 	mov	r5,r3
   434d8:	31856404 	addi	r6,r6,5520
   434dc:	39c06804 	addi	r7,r7,416
   434e0:	0045a380 	call	45a38 <__adddf3>
   434e4:	1009883a 	mov	r4,r2
   434e8:	180b883a 	mov	r5,r3
   434ec:	900d883a 	mov	r6,r18
   434f0:	880f883a 	mov	r7,r17
   434f4:	0046d040 	call	46d04 <__muldf3>
   434f8:	0185b074 	movhi	r6,5825
   434fc:	01cfd5f4 	movhi	r7,16215
   43500:	1009883a 	mov	r4,r2
   43504:	180b883a 	mov	r5,r3
   43508:	31945dc4 	addi	r6,r6,20855
   4350c:	39f05b04 	addi	r7,r7,-16020
   43510:	00474280 	call	47428 <__subdf3>
   43514:	1009883a 	mov	r4,r2
   43518:	180b883a 	mov	r5,r3
   4351c:	900d883a 	mov	r6,r18
   43520:	880f883a 	mov	r7,r17
   43524:	0046d040 	call	46d04 <__muldf3>
   43528:	01955574 	movhi	r6,21845
   4352c:	01cfe974 	movhi	r7,16293
   43530:	1009883a 	mov	r4,r2
   43534:	180b883a 	mov	r5,r3
   43538:	31955304 	addi	r6,r6,21836
   4353c:	39d55544 	addi	r7,r7,21845
   43540:	0045a380 	call	45a38 <__adddf3>
   43544:	1009883a 	mov	r4,r2
   43548:	180b883a 	mov	r5,r3
   4354c:	900d883a 	mov	r6,r18
   43550:	880f883a 	mov	r7,r17
   43554:	0046d040 	call	46d04 <__muldf3>
   43558:	1013883a 	mov	r9,r2
   4355c:	1017883a 	mov	r11,r2
   43560:	008ff4f4 	movhi	r2,16339
   43564:	108ccc84 	addi	r2,r2,13106
   43568:	902b883a 	mov	r21,r18
   4356c:	8829883a 	mov	r20,r17
   43570:	1811883a 	mov	r8,r3
   43574:	1815883a 	mov	r10,r3
   43578:	143f880e 	bge	r2,r16,4339c <__alt_data_end+0xfffd139c>
   4357c:	008ffa74 	movhi	r2,16361
   43580:	14004416 	blt	r2,r16,43694 <__kernel_cos+0x484>
   43584:	00bff834 	movhi	r2,65504
   43588:	80a1883a 	add	r16,r16,r2
   4358c:	0009883a 	mov	r4,zero
   43590:	014ffc34 	movhi	r5,16368
   43594:	000d883a 	mov	r6,zero
   43598:	800f883a 	mov	r7,r16
   4359c:	da400115 	stw	r9,4(sp)
   435a0:	d8c00215 	stw	r3,8(sp)
   435a4:	00474280 	call	47428 <__subdf3>
   435a8:	da000217 	ldw	r8,8(sp)
   435ac:	da400117 	ldw	r9,4(sp)
   435b0:	102b883a 	mov	r21,r2
   435b4:	d8c00015 	stw	r3,0(sp)
   435b8:	9009883a 	mov	r4,r18
   435bc:	880b883a 	mov	r5,r17
   435c0:	000d883a 	mov	r6,zero
   435c4:	01cff834 	movhi	r7,16352
   435c8:	da000215 	stw	r8,8(sp)
   435cc:	da400115 	stw	r9,4(sp)
   435d0:	0046d040 	call	46d04 <__muldf3>
   435d4:	800f883a 	mov	r7,r16
   435d8:	1009883a 	mov	r4,r2
   435dc:	180b883a 	mov	r5,r3
   435e0:	000d883a 	mov	r6,zero
   435e4:	00474280 	call	47428 <__subdf3>
   435e8:	da400117 	ldw	r9,4(sp)
   435ec:	da000217 	ldw	r8,8(sp)
   435f0:	9009883a 	mov	r4,r18
   435f4:	480d883a 	mov	r6,r9
   435f8:	400f883a 	mov	r7,r8
   435fc:	880b883a 	mov	r5,r17
   43600:	1029883a 	mov	r20,r2
   43604:	1821883a 	mov	r16,r3
   43608:	0046d040 	call	46d04 <__muldf3>
   4360c:	b009883a 	mov	r4,r22
   43610:	980b883a 	mov	r5,r19
   43614:	b80d883a 	mov	r6,r23
   43618:	e00f883a 	mov	r7,fp
   4361c:	1025883a 	mov	r18,r2
   43620:	1823883a 	mov	r17,r3
   43624:	0046d040 	call	46d04 <__muldf3>
   43628:	9009883a 	mov	r4,r18
   4362c:	880b883a 	mov	r5,r17
   43630:	100d883a 	mov	r6,r2
   43634:	180f883a 	mov	r7,r3
   43638:	00474280 	call	47428 <__subdf3>
   4363c:	a009883a 	mov	r4,r20
   43640:	800b883a 	mov	r5,r16
   43644:	100d883a 	mov	r6,r2
   43648:	180f883a 	mov	r7,r3
   4364c:	00474280 	call	47428 <__subdf3>
   43650:	d9400017 	ldw	r5,0(sp)
   43654:	a809883a 	mov	r4,r21
   43658:	100d883a 	mov	r6,r2
   4365c:	180f883a 	mov	r7,r3
   43660:	00474280 	call	47428 <__subdf3>
   43664:	dfc00c17 	ldw	ra,48(sp)
   43668:	df000b17 	ldw	fp,44(sp)
   4366c:	ddc00a17 	ldw	r23,40(sp)
   43670:	dd800917 	ldw	r22,36(sp)
   43674:	dd400817 	ldw	r21,32(sp)
   43678:	dd000717 	ldw	r20,28(sp)
   4367c:	dcc00617 	ldw	r19,24(sp)
   43680:	dc800517 	ldw	r18,20(sp)
   43684:	dc400417 	ldw	r17,16(sp)
   43688:	dc000317 	ldw	r16,12(sp)
   4368c:	dec00d04 	addi	sp,sp,52
   43690:	f800283a 	ret
   43694:	008ff9f4 	movhi	r2,16359
   43698:	002b883a 	mov	r21,zero
   4369c:	d8800015 	stw	r2,0(sp)
   436a0:	040ff4b4 	movhi	r16,16338
   436a4:	003fc406 	br	435b8 <__alt_data_end+0xfffd15b8>
   436a8:	0005883a 	mov	r2,zero
   436ac:	00cffc34 	movhi	r3,16368
   436b0:	003fec06 	br	43664 <__alt_data_end+0xfffd1664>

000436b4 <__kernel_rem_pio2>:
   436b4:	deff5b04 	addi	sp,sp,-660
   436b8:	da00a517 	ldw	r8,660(sp)
   436bc:	00c00174 	movhi	r3,5
   436c0:	18d28c04 	addi	r3,r3,18992
   436c4:	4205883a 	add	r2,r8,r8
   436c8:	1085883a 	add	r2,r2,r2
   436cc:	1885883a 	add	r2,r3,r2
   436d0:	d9008d15 	stw	r4,564(sp)
   436d4:	d9409015 	stw	r5,576(sp)
   436d8:	313fff44 	addi	r4,r6,-3
   436dc:	01400604 	movi	r5,24
   436e0:	dd80a115 	stw	r22,644(sp)
   436e4:	dc009b15 	stw	r16,620(sp)
   436e8:	dfc0a415 	stw	ra,656(sp)
   436ec:	df00a315 	stw	fp,652(sp)
   436f0:	ddc0a215 	stw	r23,648(sp)
   436f4:	dd40a015 	stw	r21,640(sp)
   436f8:	dd009f15 	stw	r20,636(sp)
   436fc:	dcc09e15 	stw	r19,632(sp)
   43700:	dc809d15 	stw	r18,628(sp)
   43704:	dc409c15 	stw	r17,624(sp)
   43708:	3021883a 	mov	r16,r6
   4370c:	d9c09315 	stw	r7,588(sp)
   43710:	15800017 	ldw	r22,0(r2)
   43714:	0044b000 	call	44b00 <__divsi3>
   43718:	da009317 	ldw	r8,588(sp)
   4371c:	d8809215 	stw	r2,584(sp)
   43720:	423fffc4 	addi	r8,r8,-1
   43724:	da008c15 	stw	r8,560(sp)
   43728:	10032a16 	blt	r2,zero,443d4 <__kernel_rem_pio2+0xd20>
   4372c:	da009217 	ldw	r8,584(sp)
   43730:	d9009217 	ldw	r4,584(sp)
   43734:	0206303a 	nor	r3,zero,r8
   43738:	18c00624 	muli	r3,r3,24
   4373c:	da008c17 	ldw	r8,560(sp)
   43740:	1c07883a 	add	r3,r3,r16
   43744:	4585883a 	add	r2,r8,r22
   43748:	d8c08f15 	stw	r3,572(sp)
   4374c:	2223c83a 	sub	r17,r4,r8
   43750:	10001016 	blt	r2,zero,43794 <__kernel_rem_pio2+0xe0>
   43754:	da00a617 	ldw	r8,664(sp)
   43758:	8c65883a 	add	r18,r17,r17
   4375c:	94a5883a 	add	r18,r18,r18
   43760:	8885883a 	add	r2,r17,r2
   43764:	dcc05004 	addi	r19,sp,320
   43768:	44a5883a 	add	r18,r8,r18
   4376c:	14000044 	addi	r16,r2,1
   43770:	88014516 	blt	r17,zero,43c88 <__kernel_rem_pio2+0x5d4>
   43774:	91000017 	ldw	r4,0(r18)
   43778:	0047d800 	call	47d80 <__floatsidf>
   4377c:	98800015 	stw	r2,0(r19)
   43780:	98c00115 	stw	r3,4(r19)
   43784:	8c400044 	addi	r17,r17,1
   43788:	9cc00204 	addi	r19,r19,8
   4378c:	94800104 	addi	r18,r18,4
   43790:	8c3ff71e 	bne	r17,r16,43770 <__alt_data_end+0xfffd1770>
   43794:	b0002116 	blt	r22,zero,4381c <__kernel_rem_pio2+0x168>
   43798:	da009317 	ldw	r8,588(sp)
   4379c:	b02490fa 	slli	r18,r22,3
   437a0:	d8805004 	addi	r2,sp,320
   437a4:	402e90fa 	slli	r23,r8,3
   437a8:	d823883a 	mov	r17,sp
   437ac:	dc004e04 	addi	r16,sp,312
   437b0:	14b9883a 	add	fp,r2,r18
   437b4:	da008c17 	ldw	r8,560(sp)
   437b8:	40015816 	blt	r8,zero,43d1c <__kernel_rem_pio2+0x668>
   437bc:	dcc08d17 	ldw	r19,564(sp)
   437c0:	85e5883a 	add	r18,r16,r23
   437c4:	002b883a 	mov	r21,zero
   437c8:	0029883a 	mov	r20,zero
   437cc:	99000017 	ldw	r4,0(r19)
   437d0:	99400117 	ldw	r5,4(r19)
   437d4:	91800017 	ldw	r6,0(r18)
   437d8:	91c00117 	ldw	r7,4(r18)
   437dc:	94bffe04 	addi	r18,r18,-8
   437e0:	9cc00204 	addi	r19,r19,8
   437e4:	0046d040 	call	46d04 <__muldf3>
   437e8:	a809883a 	mov	r4,r21
   437ec:	a00b883a 	mov	r5,r20
   437f0:	100d883a 	mov	r6,r2
   437f4:	180f883a 	mov	r7,r3
   437f8:	0045a380 	call	45a38 <__adddf3>
   437fc:	102b883a 	mov	r21,r2
   43800:	1829883a 	mov	r20,r3
   43804:	84bff11e 	bne	r16,r18,437cc <__alt_data_end+0xfffd17cc>
   43808:	8d400015 	stw	r21,0(r17)
   4380c:	8d000115 	stw	r20,4(r17)
   43810:	84000204 	addi	r16,r16,8
   43814:	8c400204 	addi	r17,r17,8
   43818:	873fe61e 	bne	r16,fp,437b4 <__alt_data_end+0xfffd17b4>
   4381c:	da009317 	ldw	r8,588(sp)
   43820:	b00690ba 	slli	r3,r22,2
   43824:	b0bfffc4 	addi	r2,r22,-1
   43828:	423ffe24 	muli	r8,r8,-8
   4382c:	193fff04 	addi	r4,r3,-4
   43830:	1085883a 	add	r2,r2,r2
   43834:	da008e15 	stw	r8,568(sp)
   43838:	18fffe04 	addi	r3,r3,-8
   4383c:	da007804 	addi	r8,sp,480
   43840:	40d1883a 	add	r8,r8,r3
   43844:	1085883a 	add	r2,r2,r2
   43848:	d885883a 	add	r2,sp,r2
   4384c:	da009515 	stw	r8,596(sp)
   43850:	da007804 	addi	r8,sp,480
   43854:	4111883a 	add	r8,r8,r4
   43858:	10807804 	addi	r2,r2,480
   4385c:	da009615 	stw	r8,600(sp)
   43860:	b021883a 	mov	r16,r22
   43864:	d8809715 	stw	r2,604(sp)
   43868:	dd809415 	stw	r22,592(sp)
   4386c:	800490fa 	slli	r2,r16,3
   43870:	d885883a 	add	r2,sp,r2
   43874:	15c00017 	ldw	r23,0(r2)
   43878:	15000117 	ldw	r20,4(r2)
   4387c:	04002d0e 	bge	zero,r16,43934 <__kernel_rem_pio2+0x280>
   43880:	00880034 	movhi	r2,8192
   43884:	10bfffc4 	addi	r2,r2,-1
   43888:	80a5883a 	add	r18,r16,r2
   4388c:	902490fa 	slli	r18,r18,3
   43890:	8423883a 	add	r17,r16,r16
   43894:	8c63883a 	add	r17,r17,r17
   43898:	dcc07804 	addi	r19,sp,480
   4389c:	dca5883a 	add	r18,sp,r18
   438a0:	9c63883a 	add	r17,r19,r17
   438a4:	000d883a 	mov	r6,zero
   438a8:	01cf9c34 	movhi	r7,15984
   438ac:	b809883a 	mov	r4,r23
   438b0:	a00b883a 	mov	r5,r20
   438b4:	0046d040 	call	46d04 <__muldf3>
   438b8:	180b883a 	mov	r5,r3
   438bc:	1009883a 	mov	r4,r2
   438c0:	0047cf80 	call	47cf8 <__fixdfsi>
   438c4:	1009883a 	mov	r4,r2
   438c8:	0047d800 	call	47d80 <__floatsidf>
   438cc:	1009883a 	mov	r4,r2
   438d0:	180b883a 	mov	r5,r3
   438d4:	000d883a 	mov	r6,zero
   438d8:	01d05c34 	movhi	r7,16752
   438dc:	102d883a 	mov	r22,r2
   438e0:	182b883a 	mov	r21,r3
   438e4:	0046d040 	call	46d04 <__muldf3>
   438e8:	b809883a 	mov	r4,r23
   438ec:	a00b883a 	mov	r5,r20
   438f0:	100d883a 	mov	r6,r2
   438f4:	180f883a 	mov	r7,r3
   438f8:	00474280 	call	47428 <__subdf3>
   438fc:	180b883a 	mov	r5,r3
   43900:	1009883a 	mov	r4,r2
   43904:	0047cf80 	call	47cf8 <__fixdfsi>
   43908:	91800017 	ldw	r6,0(r18)
   4390c:	91c00117 	ldw	r7,4(r18)
   43910:	98800015 	stw	r2,0(r19)
   43914:	b009883a 	mov	r4,r22
   43918:	a80b883a 	mov	r5,r21
   4391c:	0045a380 	call	45a38 <__adddf3>
   43920:	9cc00104 	addi	r19,r19,4
   43924:	102f883a 	mov	r23,r2
   43928:	1829883a 	mov	r20,r3
   4392c:	94bffe04 	addi	r18,r18,-8
   43930:	9c7fdc1e 	bne	r19,r17,438a4 <__alt_data_end+0xfffd18a4>
   43934:	d9808f17 	ldw	r6,572(sp)
   43938:	a00b883a 	mov	r5,r20
   4393c:	b809883a 	mov	r4,r23
   43940:	00448ac0 	call	448ac <scalbn>
   43944:	000d883a 	mov	r6,zero
   43948:	01cff034 	movhi	r7,16320
   4394c:	1009883a 	mov	r4,r2
   43950:	180b883a 	mov	r5,r3
   43954:	1025883a 	mov	r18,r2
   43958:	1823883a 	mov	r17,r3
   4395c:	0046d040 	call	46d04 <__muldf3>
   43960:	1009883a 	mov	r4,r2
   43964:	180b883a 	mov	r5,r3
   43968:	00446b80 	call	446b8 <floor>
   4396c:	1009883a 	mov	r4,r2
   43970:	180b883a 	mov	r5,r3
   43974:	000d883a 	mov	r6,zero
   43978:	01d00834 	movhi	r7,16416
   4397c:	0046d040 	call	46d04 <__muldf3>
   43980:	100d883a 	mov	r6,r2
   43984:	180f883a 	mov	r7,r3
   43988:	9009883a 	mov	r4,r18
   4398c:	880b883a 	mov	r5,r17
   43990:	00474280 	call	47428 <__subdf3>
   43994:	180b883a 	mov	r5,r3
   43998:	1009883a 	mov	r4,r2
   4399c:	1825883a 	mov	r18,r3
   439a0:	1027883a 	mov	r19,r2
   439a4:	0047cf80 	call	47cf8 <__fixdfsi>
   439a8:	1009883a 	mov	r4,r2
   439ac:	1023883a 	mov	r17,r2
   439b0:	0047d800 	call	47d80 <__floatsidf>
   439b4:	9809883a 	mov	r4,r19
   439b8:	900b883a 	mov	r5,r18
   439bc:	100d883a 	mov	r6,r2
   439c0:	180f883a 	mov	r7,r3
   439c4:	00474280 	call	47428 <__subdf3>
   439c8:	da008f17 	ldw	r8,572(sp)
   439cc:	1019883a 	mov	r12,r2
   439d0:	1029883a 	mov	r20,r2
   439d4:	1817883a 	mov	r11,r3
   439d8:	0200ae0e 	bge	zero,r8,43c94 <__kernel_rem_pio2+0x5e0>
   439dc:	80bfffc4 	addi	r2,r16,-1
   439e0:	1085883a 	add	r2,r2,r2
   439e4:	1085883a 	add	r2,r2,r2
   439e8:	d885883a 	add	r2,sp,r2
   439ec:	10807804 	addi	r2,r2,480
   439f0:	11400017 	ldw	r5,0(r2)
   439f4:	01000604 	movi	r4,24
   439f8:	2209c83a 	sub	r4,r4,r8
   439fc:	290dd83a 	sra	r6,r5,r4
   43a00:	048005c4 	movi	r18,23
   43a04:	9225c83a 	sub	r18,r18,r8
   43a08:	3108983a 	sll	r4,r6,r4
   43a0c:	89a3883a 	add	r17,r17,r6
   43a10:	2909c83a 	sub	r4,r5,r4
   43a14:	24a5d83a 	sra	r18,r4,r18
   43a18:	11000015 	stw	r4,0(r2)
   43a1c:	04802a0e 	bge	zero,r18,43ac8 <__kernel_rem_pio2+0x414>
   43a20:	8c400044 	addi	r17,r17,1
   43a24:	0400c40e 	bge	zero,r16,43d38 <__kernel_rem_pio2+0x684>
   43a28:	01404034 	movhi	r5,256
   43a2c:	297fffc4 	addi	r5,r5,-1
   43a30:	da007804 	addi	r8,sp,480
   43a34:	0015883a 	mov	r10,zero
   43a38:	0027883a 	mov	r19,zero
   43a3c:	01004034 	movhi	r4,256
   43a40:	00000706 	br	43a60 <__kernel_rem_pio2+0x3ac>
   43a44:	208dc83a 	sub	r6,r4,r2
   43a48:	10000226 	beq	r2,zero,43a54 <__kernel_rem_pio2+0x3a0>
   43a4c:	41800015 	stw	r6,0(r8)
   43a50:	04c00044 	movi	r19,1
   43a54:	52800044 	addi	r10,r10,1
   43a58:	42000104 	addi	r8,r8,4
   43a5c:	5400080e 	bge	r10,r16,43a80 <__kernel_rem_pio2+0x3cc>
   43a60:	40800017 	ldw	r2,0(r8)
   43a64:	983ff726 	beq	r19,zero,43a44 <__alt_data_end+0xfffd1a44>
   43a68:	2885c83a 	sub	r2,r5,r2
   43a6c:	40800015 	stw	r2,0(r8)
   43a70:	52800044 	addi	r10,r10,1
   43a74:	04c00044 	movi	r19,1
   43a78:	42000104 	addi	r8,r8,4
   43a7c:	543ff816 	blt	r10,r16,43a60 <__alt_data_end+0xfffd1a60>
   43a80:	da008f17 	ldw	r8,572(sp)
   43a84:	02000e0e 	bge	zero,r8,43ac0 <__kernel_rem_pio2+0x40c>
   43a88:	00800044 	movi	r2,1
   43a8c:	40808a26 	beq	r8,r2,43cb8 <__kernel_rem_pio2+0x604>
   43a90:	00800084 	movi	r2,2
   43a94:	40800a1e 	bne	r8,r2,43ac0 <__kernel_rem_pio2+0x40c>
   43a98:	80bfffc4 	addi	r2,r16,-1
   43a9c:	1085883a 	add	r2,r2,r2
   43aa0:	1085883a 	add	r2,r2,r2
   43aa4:	d885883a 	add	r2,sp,r2
   43aa8:	10807804 	addi	r2,r2,480
   43aac:	11400017 	ldw	r5,0(r2)
   43ab0:	01001034 	movhi	r4,64
   43ab4:	213fffc4 	addi	r4,r4,-1
   43ab8:	2908703a 	and	r4,r5,r4
   43abc:	11000015 	stw	r4,0(r2)
   43ac0:	00800084 	movi	r2,2
   43ac4:	90805a26 	beq	r18,r2,43c30 <__kernel_rem_pio2+0x57c>
   43ac8:	580b883a 	mov	r5,r11
   43acc:	a009883a 	mov	r4,r20
   43ad0:	000d883a 	mov	r6,zero
   43ad4:	000f883a 	mov	r7,zero
   43ad8:	dac09a15 	stw	r11,616(sp)
   43adc:	0046ba00 	call	46ba0 <__eqdf2>
   43ae0:	dac09a17 	ldw	r11,616(sp)
   43ae4:	1000961e 	bne	r2,zero,43d40 <__kernel_rem_pio2+0x68c>
   43ae8:	da009417 	ldw	r8,592(sp)
   43aec:	817fffc4 	addi	r5,r16,-1
   43af0:	2a000b16 	blt	r5,r8,43b20 <__kernel_rem_pio2+0x46c>
   43af4:	800490ba 	slli	r2,r16,2
   43af8:	d9809617 	ldw	r6,600(sp)
   43afc:	d9007804 	addi	r4,sp,480
   43b00:	10bfff04 	addi	r2,r2,-4
   43b04:	0007883a 	mov	r3,zero
   43b08:	2085883a 	add	r2,r4,r2
   43b0c:	11000017 	ldw	r4,0(r2)
   43b10:	10bfff04 	addi	r2,r2,-4
   43b14:	1906b03a 	or	r3,r3,r4
   43b18:	11bffc1e 	bne	r2,r6,43b0c <__alt_data_end+0xfffd1b0c>
   43b1c:	18013c1e 	bne	r3,zero,44010 <__kernel_rem_pio2+0x95c>
   43b20:	da009717 	ldw	r8,604(sp)
   43b24:	40800017 	ldw	r2,0(r8)
   43b28:	1001371e 	bne	r2,zero,44008 <__kernel_rem_pio2+0x954>
   43b2c:	d8809517 	ldw	r2,596(sp)
   43b30:	00c00044 	movi	r3,1
   43b34:	10bfff04 	addi	r2,r2,-4
   43b38:	11000117 	ldw	r4,4(r2)
   43b3c:	18c00044 	addi	r3,r3,1
   43b40:	203ffc26 	beq	r4,zero,43b34 <__alt_data_end+0xfffd1b34>
   43b44:	80c7883a 	add	r3,r16,r3
   43b48:	80800044 	addi	r2,r16,1
   43b4c:	d8c09115 	stw	r3,580(sp)
   43b50:	18803216 	blt	r3,r2,43c1c <__kernel_rem_pio2+0x568>
   43b54:	da009317 	ldw	r8,588(sp)
   43b58:	8223883a 	add	r17,r16,r8
   43b5c:	da009117 	ldw	r8,580(sp)
   43b60:	882290fa 	slli	r17,r17,3
   43b64:	45000044 	addi	r20,r8,1
   43b68:	da009217 	ldw	r8,584(sp)
   43b6c:	a02890fa 	slli	r20,r20,3
   43b70:	1227883a 	add	r19,r2,r8
   43b74:	100490fa 	slli	r2,r2,3
   43b78:	da00a617 	ldw	r8,664(sp)
   43b7c:	9ce7883a 	add	r19,r19,r19
   43b80:	9ce7883a 	add	r19,r19,r19
   43b84:	d8a5883a 	add	r18,sp,r2
   43b88:	d8805004 	addi	r2,sp,320
   43b8c:	44e7883a 	add	r19,r8,r19
   43b90:	1463883a 	add	r17,r2,r17
   43b94:	dd29883a 	add	r20,sp,r20
   43b98:	99000017 	ldw	r4,0(r19)
   43b9c:	0047d800 	call	47d80 <__floatsidf>
   43ba0:	da008c17 	ldw	r8,560(sp)
   43ba4:	88800015 	stw	r2,0(r17)
   43ba8:	88c00115 	stw	r3,4(r17)
   43bac:	40001d16 	blt	r8,zero,43c24 <__kernel_rem_pio2+0x570>
   43bb0:	da008e17 	ldw	r8,568(sp)
   43bb4:	dd808d17 	ldw	r22,564(sp)
   43bb8:	8821883a 	mov	r16,r17
   43bbc:	8a2b883a 	add	r21,r17,r8
   43bc0:	0039883a 	mov	fp,zero
   43bc4:	002f883a 	mov	r23,zero
   43bc8:	b1000017 	ldw	r4,0(r22)
   43bcc:	b1400117 	ldw	r5,4(r22)
   43bd0:	81800017 	ldw	r6,0(r16)
   43bd4:	81c00117 	ldw	r7,4(r16)
   43bd8:	843ffe04 	addi	r16,r16,-8
   43bdc:	b5800204 	addi	r22,r22,8
   43be0:	0046d040 	call	46d04 <__muldf3>
   43be4:	e009883a 	mov	r4,fp
   43be8:	b80b883a 	mov	r5,r23
   43bec:	100d883a 	mov	r6,r2
   43bf0:	180f883a 	mov	r7,r3
   43bf4:	0045a380 	call	45a38 <__adddf3>
   43bf8:	1039883a 	mov	fp,r2
   43bfc:	182f883a 	mov	r23,r3
   43c00:	857ff11e 	bne	r16,r21,43bc8 <__alt_data_end+0xfffd1bc8>
   43c04:	97000015 	stw	fp,0(r18)
   43c08:	95c00115 	stw	r23,4(r18)
   43c0c:	94800204 	addi	r18,r18,8
   43c10:	9cc00104 	addi	r19,r19,4
   43c14:	8c400204 	addi	r17,r17,8
   43c18:	953fdf1e 	bne	r18,r20,43b98 <__alt_data_end+0xfffd1b98>
   43c1c:	dc009117 	ldw	r16,580(sp)
   43c20:	003f1206 	br	4386c <__alt_data_end+0xfffd186c>
   43c24:	0039883a 	mov	fp,zero
   43c28:	002f883a 	mov	r23,zero
   43c2c:	003ff506 	br	43c04 <__alt_data_end+0xfffd1c04>
   43c30:	0009883a 	mov	r4,zero
   43c34:	014ffc34 	movhi	r5,16368
   43c38:	600d883a 	mov	r6,r12
   43c3c:	180f883a 	mov	r7,r3
   43c40:	00474280 	call	47428 <__subdf3>
   43c44:	1029883a 	mov	r20,r2
   43c48:	1817883a 	mov	r11,r3
   43c4c:	983f9e26 	beq	r19,zero,43ac8 <__alt_data_end+0xfffd1ac8>
   43c50:	d9808f17 	ldw	r6,572(sp)
   43c54:	0009883a 	mov	r4,zero
   43c58:	014ffc34 	movhi	r5,16368
   43c5c:	d8c09a15 	stw	r3,616(sp)
   43c60:	00448ac0 	call	448ac <scalbn>
   43c64:	dac09a17 	ldw	r11,616(sp)
   43c68:	a009883a 	mov	r4,r20
   43c6c:	100d883a 	mov	r6,r2
   43c70:	580b883a 	mov	r5,r11
   43c74:	180f883a 	mov	r7,r3
   43c78:	00474280 	call	47428 <__subdf3>
   43c7c:	1029883a 	mov	r20,r2
   43c80:	1817883a 	mov	r11,r3
   43c84:	003f9006 	br	43ac8 <__alt_data_end+0xfffd1ac8>
   43c88:	0005883a 	mov	r2,zero
   43c8c:	0007883a 	mov	r3,zero
   43c90:	003eba06 	br	4377c <__alt_data_end+0xfffd177c>
   43c94:	da008f17 	ldw	r8,572(sp)
   43c98:	4000121e 	bne	r8,zero,43ce4 <__kernel_rem_pio2+0x630>
   43c9c:	80bfffc4 	addi	r2,r16,-1
   43ca0:	1085883a 	add	r2,r2,r2
   43ca4:	1085883a 	add	r2,r2,r2
   43ca8:	d885883a 	add	r2,sp,r2
   43cac:	14807817 	ldw	r18,480(r2)
   43cb0:	9025d5fa 	srai	r18,r18,23
   43cb4:	003f5906 	br	43a1c <__alt_data_end+0xfffd1a1c>
   43cb8:	80bfffc4 	addi	r2,r16,-1
   43cbc:	1085883a 	add	r2,r2,r2
   43cc0:	1085883a 	add	r2,r2,r2
   43cc4:	d885883a 	add	r2,sp,r2
   43cc8:	10807804 	addi	r2,r2,480
   43ccc:	11000017 	ldw	r4,0(r2)
   43cd0:	01402034 	movhi	r5,128
   43cd4:	297fffc4 	addi	r5,r5,-1
   43cd8:	2148703a 	and	r4,r4,r5
   43cdc:	11000015 	stw	r4,0(r2)
   43ce0:	003f7706 	br	43ac0 <__alt_data_end+0xfffd1ac0>
   43ce4:	180b883a 	mov	r5,r3
   43ce8:	1009883a 	mov	r4,r2
   43cec:	000d883a 	mov	r6,zero
   43cf0:	01cff834 	movhi	r7,16352
   43cf4:	d8c09915 	stw	r3,612(sp)
   43cf8:	d8c09a15 	stw	r3,616(sp)
   43cfc:	d8809815 	stw	r2,608(sp)
   43d00:	0046c240 	call	46c24 <__gedf2>
   43d04:	d8c09917 	ldw	r3,612(sp)
   43d08:	dac09a17 	ldw	r11,616(sp)
   43d0c:	db009817 	ldw	r12,608(sp)
   43d10:	1000050e 	bge	r2,zero,43d28 <__kernel_rem_pio2+0x674>
   43d14:	0025883a 	mov	r18,zero
   43d18:	003f6b06 	br	43ac8 <__alt_data_end+0xfffd1ac8>
   43d1c:	002b883a 	mov	r21,zero
   43d20:	0029883a 	mov	r20,zero
   43d24:	003eb806 	br	43808 <__alt_data_end+0xfffd1808>
   43d28:	8c400044 	addi	r17,r17,1
   43d2c:	0401960e 	bge	zero,r16,44388 <__kernel_rem_pio2+0xcd4>
   43d30:	04800084 	movi	r18,2
   43d34:	003f3c06 	br	43a28 <__alt_data_end+0xfffd1a28>
   43d38:	0027883a 	mov	r19,zero
   43d3c:	003f5006 	br	43a80 <__alt_data_end+0xfffd1a80>
   43d40:	da008f17 	ldw	r8,572(sp)
   43d44:	a009883a 	mov	r4,r20
   43d48:	580b883a 	mov	r5,r11
   43d4c:	020dc83a 	sub	r6,zero,r8
   43d50:	dc808c15 	stw	r18,560(sp)
   43d54:	dd809417 	ldw	r22,592(sp)
   43d58:	dc408e15 	stw	r17,568(sp)
   43d5c:	00448ac0 	call	448ac <scalbn>
   43d60:	1009883a 	mov	r4,r2
   43d64:	180b883a 	mov	r5,r3
   43d68:	000d883a 	mov	r6,zero
   43d6c:	01d05c34 	movhi	r7,16752
   43d70:	1029883a 	mov	r20,r2
   43d74:	182f883a 	mov	r23,r3
   43d78:	0046c240 	call	46c24 <__gedf2>
   43d7c:	10018b16 	blt	r2,zero,443ac <__kernel_rem_pio2+0xcf8>
   43d80:	01cf9c34 	movhi	r7,15984
   43d84:	000d883a 	mov	r6,zero
   43d88:	a009883a 	mov	r4,r20
   43d8c:	b80b883a 	mov	r5,r23
   43d90:	0046d040 	call	46d04 <__muldf3>
   43d94:	180b883a 	mov	r5,r3
   43d98:	1009883a 	mov	r4,r2
   43d9c:	0047cf80 	call	47cf8 <__fixdfsi>
   43da0:	840d883a 	add	r6,r16,r16
   43da4:	318d883a 	add	r6,r6,r6
   43da8:	1009883a 	mov	r4,r2
   43dac:	d9a7883a 	add	r19,sp,r6
   43db0:	102b883a 	mov	r21,r2
   43db4:	0047d800 	call	47d80 <__floatsidf>
   43db8:	1009883a 	mov	r4,r2
   43dbc:	180b883a 	mov	r5,r3
   43dc0:	000d883a 	mov	r6,zero
   43dc4:	01d05c34 	movhi	r7,16752
   43dc8:	0046d040 	call	46d04 <__muldf3>
   43dcc:	a009883a 	mov	r4,r20
   43dd0:	b80b883a 	mov	r5,r23
   43dd4:	100d883a 	mov	r6,r2
   43dd8:	180f883a 	mov	r7,r3
   43ddc:	00474280 	call	47428 <__subdf3>
   43de0:	180b883a 	mov	r5,r3
   43de4:	1009883a 	mov	r4,r2
   43de8:	0047cf80 	call	47cf8 <__fixdfsi>
   43dec:	da008f17 	ldw	r8,572(sp)
   43df0:	84400044 	addi	r17,r16,1
   43df4:	8c47883a 	add	r3,r17,r17
   43df8:	9cc07804 	addi	r19,r19,480
   43dfc:	18c7883a 	add	r3,r3,r3
   43e00:	98800015 	stw	r2,0(r19)
   43e04:	d8c7883a 	add	r3,sp,r3
   43e08:	42000604 	addi	r8,r8,24
   43e0c:	da008f15 	stw	r8,572(sp)
   43e10:	1d407815 	stw	r21,480(r3)
   43e14:	d9808f17 	ldw	r6,572(sp)
   43e18:	0009883a 	mov	r4,zero
   43e1c:	014ffc34 	movhi	r5,16368
   43e20:	00448ac0 	call	448ac <scalbn>
   43e24:	1029883a 	mov	r20,r2
   43e28:	182b883a 	mov	r21,r3
   43e2c:	88006e16 	blt	r17,zero,43fe8 <__kernel_rem_pio2+0x934>
   43e30:	881090fa 	slli	r8,r17,3
   43e34:	d8c07804 	addi	r3,sp,480
   43e38:	dc3ffe04 	addi	r16,sp,-8
   43e3c:	da008d15 	stw	r8,564(sp)
   43e40:	d8808d17 	ldw	r2,564(sp)
   43e44:	8c51883a 	add	r8,r17,r17
   43e48:	4211883a 	add	r8,r8,r8
   43e4c:	d8a7883a 	add	r19,sp,r2
   43e50:	1a2f883a 	add	r23,r3,r8
   43e54:	9839883a 	mov	fp,r19
   43e58:	b9000017 	ldw	r4,0(r23)
   43e5c:	e73ffe04 	addi	fp,fp,-8
   43e60:	bdffff04 	addi	r23,r23,-4
   43e64:	0047d800 	call	47d80 <__floatsidf>
   43e68:	a00d883a 	mov	r6,r20
   43e6c:	a80f883a 	mov	r7,r21
   43e70:	1009883a 	mov	r4,r2
   43e74:	180b883a 	mov	r5,r3
   43e78:	0046d040 	call	46d04 <__muldf3>
   43e7c:	a009883a 	mov	r4,r20
   43e80:	a80b883a 	mov	r5,r21
   43e84:	e0800215 	stw	r2,8(fp)
   43e88:	e0c00315 	stw	r3,12(fp)
   43e8c:	000d883a 	mov	r6,zero
   43e90:	01cf9c34 	movhi	r7,15984
   43e94:	0046d040 	call	46d04 <__muldf3>
   43e98:	1029883a 	mov	r20,r2
   43e9c:	182b883a 	mov	r21,r3
   43ea0:	e43fed1e 	bne	fp,r16,43e58 <__alt_data_end+0xfffd1e58>
   43ea4:	8a000044 	addi	r8,r17,1
   43ea8:	0029883a 	mov	r20,zero
   43eac:	4039883a 	mov	fp,r8
   43eb0:	dc408f15 	stw	r17,572(sp)
   43eb4:	b0004916 	blt	r22,zero,43fdc <__kernel_rem_pio2+0x928>
   43eb8:	a0004816 	blt	r20,zero,43fdc <__kernel_rem_pio2+0x928>
   43ebc:	04000174 	movhi	r16,5
   43ec0:	84127c04 	addi	r16,r16,18928
   43ec4:	982b883a 	mov	r21,r19
   43ec8:	0023883a 	mov	r17,zero
   43ecc:	002f883a 	mov	r23,zero
   43ed0:	0025883a 	mov	r18,zero
   43ed4:	00000206 	br	43ee0 <__kernel_rem_pio2+0x82c>
   43ed8:	ad400204 	addi	r21,r21,8
   43edc:	a4800f16 	blt	r20,r18,43f1c <__kernel_rem_pio2+0x868>
   43ee0:	81000017 	ldw	r4,0(r16)
   43ee4:	81400117 	ldw	r5,4(r16)
   43ee8:	a9800017 	ldw	r6,0(r21)
   43eec:	a9c00117 	ldw	r7,4(r21)
   43ef0:	94800044 	addi	r18,r18,1
   43ef4:	84000204 	addi	r16,r16,8
   43ef8:	0046d040 	call	46d04 <__muldf3>
   43efc:	8809883a 	mov	r4,r17
   43f00:	b80b883a 	mov	r5,r23
   43f04:	100d883a 	mov	r6,r2
   43f08:	180f883a 	mov	r7,r3
   43f0c:	0045a380 	call	45a38 <__adddf3>
   43f10:	1023883a 	mov	r17,r2
   43f14:	182f883a 	mov	r23,r3
   43f18:	b4bfef0e 	bge	r22,r18,43ed8 <__alt_data_end+0xfffd1ed8>
   43f1c:	a00490fa 	slli	r2,r20,3
   43f20:	a5000044 	addi	r20,r20,1
   43f24:	9cfffe04 	addi	r19,r19,-8
   43f28:	d885883a 	add	r2,sp,r2
   43f2c:	10802804 	addi	r2,r2,160
   43f30:	14400015 	stw	r17,0(r2)
   43f34:	15c00115 	stw	r23,4(r2)
   43f38:	a73fde1e 	bne	r20,fp,43eb4 <__alt_data_end+0xfffd1eb4>
   43f3c:	da00a517 	ldw	r8,660(sp)
   43f40:	00800084 	movi	r2,2
   43f44:	dc408f17 	ldw	r17,572(sp)
   43f48:	12007316 	blt	r2,r8,44118 <__kernel_rem_pio2+0xa64>
   43f4c:	02004816 	blt	zero,r8,44070 <__kernel_rem_pio2+0x9bc>
   43f50:	4000141e 	bne	r8,zero,43fa4 <__kernel_rem_pio2+0x8f0>
   43f54:	da008d17 	ldw	r8,564(sp)
   43f58:	d8802804 	addi	r2,sp,160
   43f5c:	0007883a 	mov	r3,zero
   43f60:	1221883a 	add	r16,r2,r8
   43f64:	04ffffc4 	movi	r19,-1
   43f68:	0005883a 	mov	r2,zero
   43f6c:	81800017 	ldw	r6,0(r16)
   43f70:	81c00117 	ldw	r7,4(r16)
   43f74:	1009883a 	mov	r4,r2
   43f78:	180b883a 	mov	r5,r3
   43f7c:	8c7fffc4 	addi	r17,r17,-1
   43f80:	0045a380 	call	45a38 <__adddf3>
   43f84:	843ffe04 	addi	r16,r16,-8
   43f88:	8cfff81e 	bne	r17,r19,43f6c <__alt_data_end+0xfffd1f6c>
   43f8c:	da008c17 	ldw	r8,560(sp)
   43f90:	40000126 	beq	r8,zero,43f98 <__kernel_rem_pio2+0x8e4>
   43f94:	18e0003c 	xorhi	r3,r3,32768
   43f98:	da009017 	ldw	r8,576(sp)
   43f9c:	40800015 	stw	r2,0(r8)
   43fa0:	40c00115 	stw	r3,4(r8)
   43fa4:	da008e17 	ldw	r8,568(sp)
   43fa8:	408001cc 	andi	r2,r8,7
   43fac:	dfc0a417 	ldw	ra,656(sp)
   43fb0:	df00a317 	ldw	fp,652(sp)
   43fb4:	ddc0a217 	ldw	r23,648(sp)
   43fb8:	dd80a117 	ldw	r22,644(sp)
   43fbc:	dd40a017 	ldw	r21,640(sp)
   43fc0:	dd009f17 	ldw	r20,636(sp)
   43fc4:	dcc09e17 	ldw	r19,632(sp)
   43fc8:	dc809d17 	ldw	r18,628(sp)
   43fcc:	dc409c17 	ldw	r17,624(sp)
   43fd0:	dc009b17 	ldw	r16,620(sp)
   43fd4:	dec0a504 	addi	sp,sp,660
   43fd8:	f800283a 	ret
   43fdc:	0023883a 	mov	r17,zero
   43fe0:	002f883a 	mov	r23,zero
   43fe4:	003fcd06 	br	43f1c <__alt_data_end+0xfffd1f1c>
   43fe8:	da00a517 	ldw	r8,660(sp)
   43fec:	00800084 	movi	r2,2
   43ff0:	1200d216 	blt	r2,r8,4433c <__kernel_rem_pio2+0xc88>
   43ff4:	0200c016 	blt	zero,r8,442f8 <__kernel_rem_pio2+0xc44>
   43ff8:	403fea1e 	bne	r8,zero,43fa4 <__alt_data_end+0xfffd1fa4>
   43ffc:	0005883a 	mov	r2,zero
   44000:	0007883a 	mov	r3,zero
   44004:	003fe106 	br	43f8c <__alt_data_end+0xfffd1f8c>
   44008:	00c00044 	movi	r3,1
   4400c:	003ecd06 	br	43b44 <__alt_data_end+0xfffd1b44>
   44010:	2945883a 	add	r2,r5,r5
   44014:	da008f17 	ldw	r8,572(sp)
   44018:	1085883a 	add	r2,r2,r2
   4401c:	d885883a 	add	r2,sp,r2
   44020:	10807817 	ldw	r2,480(r2)
   44024:	423ffa04 	addi	r8,r8,-24
   44028:	dc408e15 	stw	r17,568(sp)
   4402c:	dc808c15 	stw	r18,560(sp)
   44030:	da008f15 	stw	r8,572(sp)
   44034:	dd809417 	ldw	r22,592(sp)
   44038:	2823883a 	mov	r17,r5
   4403c:	103f751e 	bne	r2,zero,43e14 <__alt_data_end+0xfffd1e14>
   44040:	280490ba 	slli	r2,r5,2
   44044:	d8c07804 	addi	r3,sp,480
   44048:	10bfff04 	addi	r2,r2,-4
   4404c:	1885883a 	add	r2,r3,r2
   44050:	4007883a 	mov	r3,r8
   44054:	10bfff04 	addi	r2,r2,-4
   44058:	11000117 	ldw	r4,4(r2)
   4405c:	8c7fffc4 	addi	r17,r17,-1
   44060:	18fffa04 	addi	r3,r3,-24
   44064:	203ffb26 	beq	r4,zero,44054 <__alt_data_end+0xfffd2054>
   44068:	d8c08f15 	stw	r3,572(sp)
   4406c:	003f6906 	br	43e14 <__alt_data_end+0xfffd1e14>
   44070:	da008d17 	ldw	r8,564(sp)
   44074:	d8802804 	addi	r2,sp,160
   44078:	dcc02604 	addi	r19,sp,152
   4407c:	1221883a 	add	r16,r2,r8
   44080:	0007883a 	mov	r3,zero
   44084:	0005883a 	mov	r2,zero
   44088:	81800017 	ldw	r6,0(r16)
   4408c:	81c00117 	ldw	r7,4(r16)
   44090:	1009883a 	mov	r4,r2
   44094:	843ffe04 	addi	r16,r16,-8
   44098:	180b883a 	mov	r5,r3
   4409c:	0045a380 	call	45a38 <__adddf3>
   440a0:	84fff91e 	bne	r16,r19,44088 <__alt_data_end+0xfffd2088>
   440a4:	da008c17 	ldw	r8,560(sp)
   440a8:	d9002817 	ldw	r4,160(sp)
   440ac:	d9402917 	ldw	r5,164(sp)
   440b0:	40009726 	beq	r8,zero,44310 <__kernel_rem_pio2+0xc5c>
   440b4:	da009017 	ldw	r8,576(sp)
   440b8:	19a0003c 	xorhi	r6,r3,32768
   440bc:	180f883a 	mov	r7,r3
   440c0:	41800115 	stw	r6,4(r8)
   440c4:	40800015 	stw	r2,0(r8)
   440c8:	100d883a 	mov	r6,r2
   440cc:	00474280 	call	47428 <__subdf3>
   440d0:	04400c0e 	bge	zero,r17,44104 <__kernel_rem_pio2+0xa50>
   440d4:	dc002a04 	addi	r16,sp,168
   440d8:	04c00044 	movi	r19,1
   440dc:	81800017 	ldw	r6,0(r16)
   440e0:	81c00117 	ldw	r7,4(r16)
   440e4:	1009883a 	mov	r4,r2
   440e8:	180b883a 	mov	r5,r3
   440ec:	9cc00044 	addi	r19,r19,1
   440f0:	0045a380 	call	45a38 <__adddf3>
   440f4:	84000204 	addi	r16,r16,8
   440f8:	8cfff80e 	bge	r17,r19,440dc <__alt_data_end+0xfffd20dc>
   440fc:	da008c17 	ldw	r8,560(sp)
   44100:	40000126 	beq	r8,zero,44108 <__kernel_rem_pio2+0xa54>
   44104:	18e0003c 	xorhi	r3,r3,32768
   44108:	da009017 	ldw	r8,576(sp)
   4410c:	40800215 	stw	r2,8(r8)
   44110:	40c00315 	stw	r3,12(r8)
   44114:	003fa306 	br	43fa4 <__alt_data_end+0xfffd1fa4>
   44118:	da00a517 	ldw	r8,660(sp)
   4411c:	008000c4 	movi	r2,3
   44120:	40bfa01e 	bne	r8,r2,43fa4 <__alt_data_end+0xfffd1fa4>
   44124:	0440880e 	bge	zero,r17,44348 <__kernel_rem_pio2+0xc94>
   44128:	da008d17 	ldw	r8,564(sp)
   4412c:	882690fa 	slli	r19,r17,3
   44130:	dd402804 	addi	r21,sp,160
   44134:	da05883a 	add	r2,sp,r8
   44138:	10802804 	addi	r2,r2,160
   4413c:	15c00017 	ldw	r23,0(r2)
   44140:	15800117 	ldw	r22,4(r2)
   44144:	9829883a 	mov	r20,r19
   44148:	9cfffe04 	addi	r19,r19,-8
   4414c:	ace7883a 	add	r19,r21,r19
   44150:	ad29883a 	add	r20,r21,r20
   44154:	dac02604 	addi	r11,sp,152
   44158:	8811883a 	mov	r8,r17
   4415c:	9c400017 	ldw	r17,0(r19)
   44160:	9f000117 	ldw	fp,4(r19)
   44164:	b809883a 	mov	r4,r23
   44168:	b00b883a 	mov	r5,r22
   4416c:	880d883a 	mov	r6,r17
   44170:	e00f883a 	mov	r7,fp
   44174:	da009815 	stw	r8,608(sp)
   44178:	dac09a15 	stw	r11,616(sp)
   4417c:	0045a380 	call	45a38 <__adddf3>
   44180:	8809883a 	mov	r4,r17
   44184:	e00b883a 	mov	r5,fp
   44188:	100d883a 	mov	r6,r2
   4418c:	180f883a 	mov	r7,r3
   44190:	1025883a 	mov	r18,r2
   44194:	1821883a 	mov	r16,r3
   44198:	00474280 	call	47428 <__subdf3>
   4419c:	b809883a 	mov	r4,r23
   441a0:	b00b883a 	mov	r5,r22
   441a4:	100d883a 	mov	r6,r2
   441a8:	180f883a 	mov	r7,r3
   441ac:	0045a380 	call	45a38 <__adddf3>
   441b0:	dac09a17 	ldw	r11,616(sp)
   441b4:	a0800015 	stw	r2,0(r20)
   441b8:	a0c00115 	stw	r3,4(r20)
   441bc:	9c800015 	stw	r18,0(r19)
   441c0:	9c000115 	stw	r16,4(r19)
   441c4:	9cfffe04 	addi	r19,r19,-8
   441c8:	a53ffe04 	addi	r20,r20,-8
   441cc:	902f883a 	mov	r23,r18
   441d0:	802d883a 	mov	r22,r16
   441d4:	da009817 	ldw	r8,608(sp)
   441d8:	9affe01e 	bne	r19,r11,4415c <__alt_data_end+0xfffd215c>
   441dc:	00800044 	movi	r2,1
   441e0:	1200590e 	bge	r2,r8,44348 <__kernel_rem_pio2+0xc94>
   441e4:	402290fa 	slli	r17,r8,3
   441e8:	da008d17 	ldw	r8,564(sp)
   441ec:	8c3ffe04 	addi	r16,r17,-8
   441f0:	da05883a 	add	r2,sp,r8
   441f4:	10802804 	addi	r2,r2,160
   441f8:	15800017 	ldw	r22,0(r2)
   441fc:	15000117 	ldw	r20,4(r2)
   44200:	ac63883a 	add	r17,r21,r17
   44204:	ac21883a 	add	r16,r21,r16
   44208:	8827883a 	mov	r19,r17
   4420c:	8811883a 	mov	r8,r17
   44210:	84400017 	ldw	r17,0(r16)
   44214:	87000117 	ldw	fp,4(r16)
   44218:	b00d883a 	mov	r6,r22
   4421c:	a00f883a 	mov	r7,r20
   44220:	8809883a 	mov	r4,r17
   44224:	e00b883a 	mov	r5,fp
   44228:	da009815 	stw	r8,608(sp)
   4422c:	0045a380 	call	45a38 <__adddf3>
   44230:	8809883a 	mov	r4,r17
   44234:	e00b883a 	mov	r5,fp
   44238:	100d883a 	mov	r6,r2
   4423c:	180f883a 	mov	r7,r3
   44240:	102f883a 	mov	r23,r2
   44244:	1825883a 	mov	r18,r3
   44248:	00474280 	call	47428 <__subdf3>
   4424c:	b00d883a 	mov	r6,r22
   44250:	a00f883a 	mov	r7,r20
   44254:	1009883a 	mov	r4,r2
   44258:	180b883a 	mov	r5,r3
   4425c:	0045a380 	call	45a38 <__adddf3>
   44260:	98800015 	stw	r2,0(r19)
   44264:	98c00115 	stw	r3,4(r19)
   44268:	85c00015 	stw	r23,0(r16)
   4426c:	84800115 	stw	r18,4(r16)
   44270:	843ffe04 	addi	r16,r16,-8
   44274:	9cfffe04 	addi	r19,r19,-8
   44278:	b82d883a 	mov	r22,r23
   4427c:	9029883a 	mov	r20,r18
   44280:	da009817 	ldw	r8,608(sp)
   44284:	ac3fe21e 	bne	r21,r16,44210 <__alt_data_end+0xfffd2210>
   44288:	4023883a 	mov	r17,r8
   4428c:	dc002a04 	addi	r16,sp,168
   44290:	0005883a 	mov	r2,zero
   44294:	0007883a 	mov	r3,zero
   44298:	89800017 	ldw	r6,0(r17)
   4429c:	89c00117 	ldw	r7,4(r17)
   442a0:	1009883a 	mov	r4,r2
   442a4:	8c7ffe04 	addi	r17,r17,-8
   442a8:	180b883a 	mov	r5,r3
   442ac:	0045a380 	call	45a38 <__adddf3>
   442b0:	8c3ff91e 	bne	r17,r16,44298 <__alt_data_end+0xfffd2298>
   442b4:	da008c17 	ldw	r8,560(sp)
   442b8:	40002726 	beq	r8,zero,44358 <__kernel_rem_pio2+0xca4>
   442bc:	d9002b17 	ldw	r4,172(sp)
   442c0:	d9402917 	ldw	r5,164(sp)
   442c4:	d9802a17 	ldw	r6,168(sp)
   442c8:	da009017 	ldw	r8,576(sp)
   442cc:	d9c02817 	ldw	r7,160(sp)
   442d0:	2960003c 	xorhi	r5,r5,32768
   442d4:	2120003c 	xorhi	r4,r4,32768
   442d8:	18e0003c 	xorhi	r3,r3,32768
   442dc:	41c00015 	stw	r7,0(r8)
   442e0:	41400115 	stw	r5,4(r8)
   442e4:	41800215 	stw	r6,8(r8)
   442e8:	41000315 	stw	r4,12(r8)
   442ec:	40800415 	stw	r2,16(r8)
   442f0:	40c00515 	stw	r3,20(r8)
   442f4:	003f2b06 	br	43fa4 <__alt_data_end+0xfffd1fa4>
   442f8:	da008c17 	ldw	r8,560(sp)
   442fc:	0005883a 	mov	r2,zero
   44300:	0007883a 	mov	r3,zero
   44304:	d9002817 	ldw	r4,160(sp)
   44308:	d9402917 	ldw	r5,164(sp)
   4430c:	403f691e 	bne	r8,zero,440b4 <__alt_data_end+0xfffd20b4>
   44310:	da009017 	ldw	r8,576(sp)
   44314:	100d883a 	mov	r6,r2
   44318:	180f883a 	mov	r7,r3
   4431c:	40800015 	stw	r2,0(r8)
   44320:	40c00115 	stw	r3,4(r8)
   44324:	00474280 	call	47428 <__subdf3>
   44328:	047f6a16 	blt	zero,r17,440d4 <__alt_data_end+0xfffd20d4>
   4432c:	da009017 	ldw	r8,576(sp)
   44330:	40800215 	stw	r2,8(r8)
   44334:	40c00315 	stw	r3,12(r8)
   44338:	003f1a06 	br	43fa4 <__alt_data_end+0xfffd1fa4>
   4433c:	da00a517 	ldw	r8,660(sp)
   44340:	008000c4 	movi	r2,3
   44344:	40bf171e 	bne	r8,r2,43fa4 <__alt_data_end+0xfffd1fa4>
   44348:	da008c17 	ldw	r8,560(sp)
   4434c:	0005883a 	mov	r2,zero
   44350:	0007883a 	mov	r3,zero
   44354:	403fd91e 	bne	r8,zero,442bc <__alt_data_end+0xfffd22bc>
   44358:	da009017 	ldw	r8,576(sp)
   4435c:	d9802817 	ldw	r6,160(sp)
   44360:	d9402a17 	ldw	r5,168(sp)
   44364:	d9002b17 	ldw	r4,172(sp)
   44368:	41800015 	stw	r6,0(r8)
   4436c:	d9802917 	ldw	r6,164(sp)
   44370:	41400215 	stw	r5,8(r8)
   44374:	41000315 	stw	r4,12(r8)
   44378:	41800115 	stw	r6,4(r8)
   4437c:	40800415 	stw	r2,16(r8)
   44380:	40c00515 	stw	r3,20(r8)
   44384:	003f0706 	br	43fa4 <__alt_data_end+0xfffd1fa4>
   44388:	a00d883a 	mov	r6,r20
   4438c:	580f883a 	mov	r7,r11
   44390:	0009883a 	mov	r4,zero
   44394:	014ffc34 	movhi	r5,16368
   44398:	00474280 	call	47428 <__subdf3>
   4439c:	1029883a 	mov	r20,r2
   443a0:	1817883a 	mov	r11,r3
   443a4:	04800084 	movi	r18,2
   443a8:	003dc706 	br	43ac8 <__alt_data_end+0xfffd1ac8>
   443ac:	840d883a 	add	r6,r16,r16
   443b0:	318d883a 	add	r6,r6,r6
   443b4:	d9a3883a 	add	r17,sp,r6
   443b8:	a009883a 	mov	r4,r20
   443bc:	b80b883a 	mov	r5,r23
   443c0:	8c407804 	addi	r17,r17,480
   443c4:	0047cf80 	call	47cf8 <__fixdfsi>
   443c8:	88800015 	stw	r2,0(r17)
   443cc:	8023883a 	mov	r17,r16
   443d0:	003e9006 	br	43e14 <__alt_data_end+0xfffd1e14>
   443d4:	d8009215 	stw	zero,584(sp)
   443d8:	003cd406 	br	4372c <__alt_data_end+0xfffd172c>

000443dc <__kernel_sin>:
   443dc:	00a00034 	movhi	r2,32768
   443e0:	defff404 	addi	sp,sp,-48
   443e4:	10bfffc4 	addi	r2,r2,-1
   443e8:	00cf9034 	movhi	r3,15936
   443ec:	ddc00915 	stw	r23,36(sp)
   443f0:	dd800815 	stw	r22,32(sp)
   443f4:	dc400315 	stw	r17,12(sp)
   443f8:	dc000215 	stw	r16,8(sp)
   443fc:	dfc00b15 	stw	ra,44(sp)
   44400:	df000a15 	stw	fp,40(sp)
   44404:	dd400715 	stw	r21,28(sp)
   44408:	dd000615 	stw	r20,24(sp)
   4440c:	dcc00515 	stw	r19,20(sp)
   44410:	dc800415 	stw	r18,16(sp)
   44414:	2884703a 	and	r2,r5,r2
   44418:	18ffffc4 	addi	r3,r3,-1
   4441c:	2821883a 	mov	r16,r5
   44420:	2023883a 	mov	r17,r4
   44424:	302f883a 	mov	r23,r6
   44428:	382d883a 	mov	r22,r7
   4442c:	18800216 	blt	r3,r2,44438 <__kernel_sin+0x5c>
   44430:	0047cf80 	call	47cf8 <__fixdfsi>
   44434:	10009826 	beq	r2,zero,44698 <__kernel_sin+0x2bc>
   44438:	8809883a 	mov	r4,r17
   4443c:	800b883a 	mov	r5,r16
   44440:	880d883a 	mov	r6,r17
   44444:	800f883a 	mov	r7,r16
   44448:	0046d040 	call	46d04 <__muldf3>
   4444c:	1009883a 	mov	r4,r2
   44450:	180b883a 	mov	r5,r3
   44454:	880d883a 	mov	r6,r17
   44458:	800f883a 	mov	r7,r16
   4445c:	1027883a 	mov	r19,r2
   44460:	1825883a 	mov	r18,r3
   44464:	0046d040 	call	46d04 <__muldf3>
   44468:	0196b434 	movhi	r6,23248
   4446c:	01cf79b4 	movhi	r7,15846
   44470:	9809883a 	mov	r4,r19
   44474:	900b883a 	mov	r5,r18
   44478:	31b55f04 	addi	r6,r6,-10884
   4447c:	39f64e84 	addi	r7,r7,-9926
   44480:	102b883a 	mov	r21,r2
   44484:	1829883a 	mov	r20,r3
   44488:	0046d040 	call	46d04 <__muldf3>
   4448c:	01a28b34 	movhi	r6,35372
   44490:	01cf96f4 	movhi	r7,15963
   44494:	1009883a 	mov	r4,r2
   44498:	180b883a 	mov	r5,r3
   4449c:	31a73ac4 	addi	r6,r6,-25365
   444a0:	39f97984 	addi	r7,r7,-6682
   444a4:	00474280 	call	47428 <__subdf3>
   444a8:	1009883a 	mov	r4,r2
   444ac:	180b883a 	mov	r5,r3
   444b0:	980d883a 	mov	r6,r19
   444b4:	900f883a 	mov	r7,r18
   444b8:	0046d040 	call	46d04 <__muldf3>
   444bc:	0195ecb4 	movhi	r6,22450
   444c0:	01cfb1f4 	movhi	r7,16071
   444c4:	1009883a 	mov	r4,r2
   444c8:	180b883a 	mov	r5,r3
   444cc:	31bf9f44 	addi	r6,r6,-387
   444d0:	39c778c4 	addi	r7,r7,7651
   444d4:	0045a380 	call	45a38 <__adddf3>
   444d8:	1009883a 	mov	r4,r2
   444dc:	180b883a 	mov	r5,r3
   444e0:	980d883a 	mov	r6,r19
   444e4:	900f883a 	mov	r7,r18
   444e8:	0046d040 	call	46d04 <__muldf3>
   444ec:	01867074 	movhi	r6,6593
   444f0:	01cfcab4 	movhi	r7,16170
   444f4:	1009883a 	mov	r4,r2
   444f8:	180b883a 	mov	r5,r3
   444fc:	31987544 	addi	r6,r6,25045
   44500:	39c06804 	addi	r7,r7,416
   44504:	00474280 	call	47428 <__subdf3>
   44508:	1009883a 	mov	r4,r2
   4450c:	180b883a 	mov	r5,r3
   44510:	980d883a 	mov	r6,r19
   44514:	900f883a 	mov	r7,r18
   44518:	0046d040 	call	46d04 <__muldf3>
   4451c:	01844474 	movhi	r6,4369
   44520:	01cfe074 	movhi	r7,16257
   44524:	1009883a 	mov	r4,r2
   44528:	180b883a 	mov	r5,r3
   4452c:	31be2984 	addi	r6,r6,-1882
   44530:	39c44444 	addi	r7,r7,4369
   44534:	0045a380 	call	45a38 <__adddf3>
   44538:	d9000c17 	ldw	r4,48(sp)
   4453c:	1839883a 	mov	fp,r3
   44540:	20003e26 	beq	r4,zero,4463c <__kernel_sin+0x260>
   44544:	b809883a 	mov	r4,r23
   44548:	b00b883a 	mov	r5,r22
   4454c:	000d883a 	mov	r6,zero
   44550:	01cff834 	movhi	r7,16352
   44554:	d8800015 	stw	r2,0(sp)
   44558:	0046d040 	call	46d04 <__muldf3>
   4455c:	da000017 	ldw	r8,0(sp)
   44560:	a809883a 	mov	r4,r21
   44564:	a00b883a 	mov	r5,r20
   44568:	400d883a 	mov	r6,r8
   4456c:	e00f883a 	mov	r7,fp
   44570:	d8c00115 	stw	r3,4(sp)
   44574:	d8800015 	stw	r2,0(sp)
   44578:	0046d040 	call	46d04 <__muldf3>
   4457c:	da800017 	ldw	r10,0(sp)
   44580:	da400117 	ldw	r9,4(sp)
   44584:	100d883a 	mov	r6,r2
   44588:	5009883a 	mov	r4,r10
   4458c:	480b883a 	mov	r5,r9
   44590:	180f883a 	mov	r7,r3
   44594:	00474280 	call	47428 <__subdf3>
   44598:	980d883a 	mov	r6,r19
   4459c:	900f883a 	mov	r7,r18
   445a0:	1009883a 	mov	r4,r2
   445a4:	180b883a 	mov	r5,r3
   445a8:	0046d040 	call	46d04 <__muldf3>
   445ac:	1009883a 	mov	r4,r2
   445b0:	180b883a 	mov	r5,r3
   445b4:	b80d883a 	mov	r6,r23
   445b8:	b00f883a 	mov	r7,r22
   445bc:	00474280 	call	47428 <__subdf3>
   445c0:	01955574 	movhi	r6,21845
   445c4:	01cff174 	movhi	r7,16325
   445c8:	a809883a 	mov	r4,r21
   445cc:	a00b883a 	mov	r5,r20
   445d0:	31955244 	addi	r6,r6,21833
   445d4:	39d55544 	addi	r7,r7,21845
   445d8:	1027883a 	mov	r19,r2
   445dc:	1825883a 	mov	r18,r3
   445e0:	0046d040 	call	46d04 <__muldf3>
   445e4:	9809883a 	mov	r4,r19
   445e8:	900b883a 	mov	r5,r18
   445ec:	100d883a 	mov	r6,r2
   445f0:	180f883a 	mov	r7,r3
   445f4:	0045a380 	call	45a38 <__adddf3>
   445f8:	8809883a 	mov	r4,r17
   445fc:	800b883a 	mov	r5,r16
   44600:	100d883a 	mov	r6,r2
   44604:	180f883a 	mov	r7,r3
   44608:	00474280 	call	47428 <__subdf3>
   4460c:	dfc00b17 	ldw	ra,44(sp)
   44610:	df000a17 	ldw	fp,40(sp)
   44614:	ddc00917 	ldw	r23,36(sp)
   44618:	dd800817 	ldw	r22,32(sp)
   4461c:	dd400717 	ldw	r21,28(sp)
   44620:	dd000617 	ldw	r20,24(sp)
   44624:	dcc00517 	ldw	r19,20(sp)
   44628:	dc800417 	ldw	r18,16(sp)
   4462c:	dc400317 	ldw	r17,12(sp)
   44630:	dc000217 	ldw	r16,8(sp)
   44634:	dec00c04 	addi	sp,sp,48
   44638:	f800283a 	ret
   4463c:	9809883a 	mov	r4,r19
   44640:	900b883a 	mov	r5,r18
   44644:	100d883a 	mov	r6,r2
   44648:	180f883a 	mov	r7,r3
   4464c:	0046d040 	call	46d04 <__muldf3>
   44650:	01955574 	movhi	r6,21845
   44654:	01cff174 	movhi	r7,16325
   44658:	1009883a 	mov	r4,r2
   4465c:	180b883a 	mov	r5,r3
   44660:	31955244 	addi	r6,r6,21833
   44664:	39d55544 	addi	r7,r7,21845
   44668:	00474280 	call	47428 <__subdf3>
   4466c:	a80d883a 	mov	r6,r21
   44670:	a00f883a 	mov	r7,r20
   44674:	1009883a 	mov	r4,r2
   44678:	180b883a 	mov	r5,r3
   4467c:	0046d040 	call	46d04 <__muldf3>
   44680:	1009883a 	mov	r4,r2
   44684:	180b883a 	mov	r5,r3
   44688:	880d883a 	mov	r6,r17
   4468c:	800f883a 	mov	r7,r16
   44690:	0045a380 	call	45a38 <__adddf3>
   44694:	003fdd06 	br	4460c <__alt_data_end+0xfffd260c>
   44698:	8805883a 	mov	r2,r17
   4469c:	8007883a 	mov	r3,r16
   446a0:	003fda06 	br	4460c <__alt_data_end+0xfffd260c>

000446a4 <fabs>:
   446a4:	00e00034 	movhi	r3,32768
   446a8:	18ffffc4 	addi	r3,r3,-1
   446ac:	2005883a 	mov	r2,r4
   446b0:	28c6703a 	and	r3,r5,r3
   446b4:	f800283a 	ret

000446b8 <floor>:
   446b8:	defff904 	addi	sp,sp,-28
   446bc:	dc800215 	stw	r18,8(sp)
   446c0:	2825d53a 	srai	r18,r5,20
   446c4:	dd000415 	stw	r20,16(sp)
   446c8:	dcc00315 	stw	r19,12(sp)
   446cc:	9481ffcc 	andi	r18,r18,2047
   446d0:	dc400115 	stw	r17,4(sp)
   446d4:	dc000015 	stw	r16,0(sp)
   446d8:	dfc00615 	stw	ra,24(sp)
   446dc:	dd400515 	stw	r21,20(sp)
   446e0:	94ff0044 	addi	r19,r18,-1023
   446e4:	018004c4 	movi	r6,19
   446e8:	2821883a 	mov	r16,r5
   446ec:	2005883a 	mov	r2,r4
   446f0:	280f883a 	mov	r7,r5
   446f4:	2829883a 	mov	r20,r5
   446f8:	2023883a 	mov	r17,r4
   446fc:	34c01916 	blt	r6,r19,44764 <floor+0xac>
   44700:	98003d16 	blt	r19,zero,447f8 <floor+0x140>
   44704:	04800434 	movhi	r18,16
   44708:	94bfffc4 	addi	r18,r18,-1
   4470c:	94e5d83a 	sra	r18,r18,r19
   44710:	914c703a 	and	r6,r18,r5
   44714:	310cb03a 	or	r6,r6,r4
   44718:	30001626 	beq	r6,zero,44774 <floor+0xbc>
   4471c:	01a20034 	movhi	r6,34816
   44720:	01df8e34 	movhi	r7,32312
   44724:	319d6704 	addi	r6,r6,30108
   44728:	39f90f04 	addi	r7,r7,-7108
   4472c:	0045a380 	call	45a38 <__adddf3>
   44730:	1009883a 	mov	r4,r2
   44734:	180b883a 	mov	r5,r3
   44738:	000d883a 	mov	r6,zero
   4473c:	000f883a 	mov	r7,zero
   44740:	0046c240 	call	46c24 <__gedf2>
   44744:	0080040e 	bge	zero,r2,44758 <floor+0xa0>
   44748:	80003d16 	blt	r16,zero,44840 <floor+0x188>
   4474c:	04a0303a 	nor	r16,zero,r18
   44750:	a420703a 	and	r16,r20,r16
   44754:	0023883a 	mov	r17,zero
   44758:	8805883a 	mov	r2,r17
   4475c:	8007883a 	mov	r3,r16
   44760:	00000506 	br	44778 <floor+0xc0>
   44764:	01800cc4 	movi	r6,51
   44768:	34c00c0e 	bge	r6,r19,4479c <floor+0xe4>
   4476c:	01810004 	movi	r6,1024
   44770:	99803026 	beq	r19,r6,44834 <floor+0x17c>
   44774:	3807883a 	mov	r3,r7
   44778:	dfc00617 	ldw	ra,24(sp)
   4477c:	dd400517 	ldw	r21,20(sp)
   44780:	dd000417 	ldw	r20,16(sp)
   44784:	dcc00317 	ldw	r19,12(sp)
   44788:	dc800217 	ldw	r18,8(sp)
   4478c:	dc400117 	ldw	r17,4(sp)
   44790:	dc000017 	ldw	r16,0(sp)
   44794:	dec00704 	addi	sp,sp,28
   44798:	f800283a 	ret
   4479c:	01bfffc4 	movi	r6,-1
   447a0:	957efb44 	addi	r21,r18,-1043
   447a4:	356ad83a 	srl	r21,r6,r21
   447a8:	a90c703a 	and	r6,r21,r4
   447ac:	303ff126 	beq	r6,zero,44774 <__alt_data_end+0xfffd2774>
   447b0:	01a20034 	movhi	r6,34816
   447b4:	01df8e34 	movhi	r7,32312
   447b8:	319d6704 	addi	r6,r6,30108
   447bc:	39f90f04 	addi	r7,r7,-7108
   447c0:	0045a380 	call	45a38 <__adddf3>
   447c4:	1009883a 	mov	r4,r2
   447c8:	180b883a 	mov	r5,r3
   447cc:	000d883a 	mov	r6,zero
   447d0:	000f883a 	mov	r7,zero
   447d4:	0046c240 	call	46c24 <__gedf2>
   447d8:	00bfdf0e 	bge	zero,r2,44758 <__alt_data_end+0xfffd2758>
   447dc:	80001c16 	blt	r16,zero,44850 <floor+0x198>
   447e0:	056a303a 	nor	r21,zero,r21
   447e4:	a021883a 	mov	r16,r20
   447e8:	8d62703a 	and	r17,r17,r21
   447ec:	8805883a 	mov	r2,r17
   447f0:	8007883a 	mov	r3,r16
   447f4:	003fe006 	br	44778 <__alt_data_end+0xfffd2778>
   447f8:	01a20034 	movhi	r6,34816
   447fc:	01df8e34 	movhi	r7,32312
   44800:	319d6704 	addi	r6,r6,30108
   44804:	39f90f04 	addi	r7,r7,-7108
   44808:	0045a380 	call	45a38 <__adddf3>
   4480c:	1009883a 	mov	r4,r2
   44810:	180b883a 	mov	r5,r3
   44814:	000d883a 	mov	r6,zero
   44818:	000f883a 	mov	r7,zero
   4481c:	0046c240 	call	46c24 <__gedf2>
   44820:	00bfcd0e 	bge	zero,r2,44758 <__alt_data_end+0xfffd2758>
   44824:	80001516 	blt	r16,zero,4487c <floor+0x1c4>
   44828:	0023883a 	mov	r17,zero
   4482c:	0021883a 	mov	r16,zero
   44830:	003fc906 	br	44758 <__alt_data_end+0xfffd2758>
   44834:	200d883a 	mov	r6,r4
   44838:	0045a380 	call	45a38 <__adddf3>
   4483c:	003fce06 	br	44778 <__alt_data_end+0xfffd2778>
   44840:	00800434 	movhi	r2,16
   44844:	14e7d83a 	sra	r19,r2,r19
   44848:	84e9883a 	add	r20,r16,r19
   4484c:	003fbf06 	br	4474c <__alt_data_end+0xfffd274c>
   44850:	00800504 	movi	r2,20
   44854:	98801326 	beq	r19,r2,448a4 <floor+0x1ec>
   44858:	00810cc4 	movi	r2,1075
   4485c:	14a5c83a 	sub	r18,r2,r18
   44860:	00800044 	movi	r2,1
   44864:	1484983a 	sll	r2,r2,r18
   44868:	1445883a 	add	r2,r2,r17
   4486c:	14400b2e 	bgeu	r2,r17,4489c <floor+0x1e4>
   44870:	85000044 	addi	r20,r16,1
   44874:	1023883a 	mov	r17,r2
   44878:	003fd906 	br	447e0 <__alt_data_end+0xfffd27e0>
   4487c:	00a00034 	movhi	r2,32768
   44880:	10bfffc4 	addi	r2,r2,-1
   44884:	8084703a 	and	r2,r16,r2
   44888:	1462b03a 	or	r17,r2,r17
   4488c:	883fb226 	beq	r17,zero,44758 <__alt_data_end+0xfffd2758>
   44890:	0023883a 	mov	r17,zero
   44894:	042ffc34 	movhi	r16,49136
   44898:	003faf06 	br	44758 <__alt_data_end+0xfffd2758>
   4489c:	1023883a 	mov	r17,r2
   448a0:	003fcf06 	br	447e0 <__alt_data_end+0xfffd27e0>
   448a4:	85000044 	addi	r20,r16,1
   448a8:	003fcd06 	br	447e0 <__alt_data_end+0xfffd27e0>

000448ac <scalbn>:
   448ac:	2a1ffc2c 	andhi	r8,r5,32752
   448b0:	4011d53a 	srai	r8,r8,20
   448b4:	defffe04 	addi	sp,sp,-8
   448b8:	dc000015 	stw	r16,0(sp)
   448bc:	dfc00115 	stw	ra,4(sp)
   448c0:	280f883a 	mov	r7,r5
   448c4:	2015883a 	mov	r10,r4
   448c8:	3021883a 	mov	r16,r6
   448cc:	4000251e 	bne	r8,zero,44964 <scalbn+0xb8>
   448d0:	00a00034 	movhi	r2,32768
   448d4:	10bfffc4 	addi	r2,r2,-1
   448d8:	2884703a 	and	r2,r5,r2
   448dc:	1104b03a 	or	r2,r2,r4
   448e0:	10003126 	beq	r2,zero,449a8 <scalbn+0xfc>
   448e4:	01d0d434 	movhi	r7,17232
   448e8:	000d883a 	mov	r6,zero
   448ec:	0046d040 	call	46d04 <__muldf3>
   448f0:	013ffff4 	movhi	r4,65535
   448f4:	210f2c04 	addi	r4,r4,15536
   448f8:	1015883a 	mov	r10,r2
   448fc:	180f883a 	mov	r7,r3
   44900:	81002f16 	blt	r16,r4,449c0 <scalbn+0x114>
   44904:	1a5ffc2c 	andhi	r9,r3,32752
   44908:	4813d53a 	srai	r9,r9,20
   4490c:	0081ff84 	movi	r2,2046
   44910:	180d883a 	mov	r6,r3
   44914:	4a3ff284 	addi	r8,r9,-54
   44918:	4411883a 	add	r8,r8,r16
   4491c:	1200170e 	bge	r2,r8,4497c <scalbn+0xd0>
   44920:	01220034 	movhi	r4,34816
   44924:	015f8e34 	movhi	r5,32312
   44928:	500d883a 	mov	r6,r10
   4492c:	211d6704 	addi	r4,r4,30108
   44930:	29790f04 	addi	r5,r5,-7108
   44934:	0044a780 	call	44a78 <copysign>
   44938:	01a20034 	movhi	r6,34816
   4493c:	01df8e34 	movhi	r7,32312
   44940:	1009883a 	mov	r4,r2
   44944:	180b883a 	mov	r5,r3
   44948:	319d6704 	addi	r6,r6,30108
   4494c:	39f90f04 	addi	r7,r7,-7108
   44950:	0046d040 	call	46d04 <__muldf3>
   44954:	dfc00117 	ldw	ra,4(sp)
   44958:	dc000017 	ldw	r16,0(sp)
   4495c:	dec00204 	addi	sp,sp,8
   44960:	f800283a 	ret
   44964:	0081ffc4 	movi	r2,2047
   44968:	280d883a 	mov	r6,r5
   4496c:	40803126 	beq	r8,r2,44a34 <scalbn+0x188>
   44970:	4411883a 	add	r8,r8,r16
   44974:	0081ff84 	movi	r2,2046
   44978:	123fe916 	blt	r2,r8,44920 <__alt_data_end+0xfffd2920>
   4497c:	02001b0e 	bge	zero,r8,449ec <scalbn+0x140>
   44980:	4010953a 	slli	r8,r8,20
   44984:	00e00434 	movhi	r3,32784
   44988:	18ffffc4 	addi	r3,r3,-1
   4498c:	30ce703a 	and	r7,r6,r3
   44990:	5005883a 	mov	r2,r10
   44994:	41c6b03a 	or	r3,r8,r7
   44998:	dfc00117 	ldw	ra,4(sp)
   4499c:	dc000017 	ldw	r16,0(sp)
   449a0:	dec00204 	addi	sp,sp,8
   449a4:	f800283a 	ret
   449a8:	2005883a 	mov	r2,r4
   449ac:	2807883a 	mov	r3,r5
   449b0:	dfc00117 	ldw	ra,4(sp)
   449b4:	dc000017 	ldw	r16,0(sp)
   449b8:	dec00204 	addi	sp,sp,8
   449bc:	f800283a 	ret
   449c0:	01b0be74 	movhi	r6,49913
   449c4:	01c06974 	movhi	r7,421
   449c8:	31bcd644 	addi	r6,r6,-3239
   449cc:	39db87c4 	addi	r7,r7,28191
   449d0:	1009883a 	mov	r4,r2
   449d4:	180b883a 	mov	r5,r3
   449d8:	0046d040 	call	46d04 <__muldf3>
   449dc:	dfc00117 	ldw	ra,4(sp)
   449e0:	dc000017 	ldw	r16,0(sp)
   449e4:	dec00204 	addi	sp,sp,8
   449e8:	f800283a 	ret
   449ec:	00bff2c4 	movi	r2,-53
   449f0:	4080160e 	bge	r8,r2,44a4c <scalbn+0x1a0>
   449f4:	00b0d414 	movui	r2,50000
   449f8:	143fc916 	blt	r2,r16,44920 <__alt_data_end+0xfffd2920>
   449fc:	0130be74 	movhi	r4,49913
   44a00:	01406974 	movhi	r5,421
   44a04:	500d883a 	mov	r6,r10
   44a08:	213cd644 	addi	r4,r4,-3239
   44a0c:	295b87c4 	addi	r5,r5,28191
   44a10:	0044a780 	call	44a78 <copysign>
   44a14:	01b0be74 	movhi	r6,49913
   44a18:	01c06974 	movhi	r7,421
   44a1c:	1009883a 	mov	r4,r2
   44a20:	180b883a 	mov	r5,r3
   44a24:	31bcd644 	addi	r6,r6,-3239
   44a28:	39db87c4 	addi	r7,r7,28191
   44a2c:	0046d040 	call	46d04 <__muldf3>
   44a30:	003fd906 	br	44998 <__alt_data_end+0xfffd2998>
   44a34:	200d883a 	mov	r6,r4
   44a38:	0045a380 	call	45a38 <__adddf3>
   44a3c:	dfc00117 	ldw	ra,4(sp)
   44a40:	dc000017 	ldw	r16,0(sp)
   44a44:	dec00204 	addi	sp,sp,8
   44a48:	f800283a 	ret
   44a4c:	42000d84 	addi	r8,r8,54
   44a50:	4012953a 	slli	r9,r8,20
   44a54:	01e00434 	movhi	r7,32784
   44a58:	39ffffc4 	addi	r7,r7,-1
   44a5c:	31ca703a 	and	r5,r6,r7
   44a60:	5009883a 	mov	r4,r10
   44a64:	494ab03a 	or	r5,r9,r5
   44a68:	000d883a 	mov	r6,zero
   44a6c:	01cf2434 	movhi	r7,15504
   44a70:	0046d040 	call	46d04 <__muldf3>
   44a74:	003fc806 	br	44998 <__alt_data_end+0xfffd2998>

00044a78 <copysign>:
   44a78:	2005883a 	mov	r2,r4
   44a7c:	01200034 	movhi	r4,32768
   44a80:	213fffc4 	addi	r4,r4,-1
   44a84:	38e0002c 	andhi	r3,r7,32768
   44a88:	290a703a 	and	r5,r5,r4
   44a8c:	1946b03a 	or	r3,r3,r5
   44a90:	f800283a 	ret

00044a94 <udivmodsi4>:
   44a94:	2900182e 	bgeu	r5,r4,44af8 <udivmodsi4+0x64>
   44a98:	28001716 	blt	r5,zero,44af8 <udivmodsi4+0x64>
   44a9c:	00800804 	movi	r2,32
   44aa0:	00c00044 	movi	r3,1
   44aa4:	00000206 	br	44ab0 <udivmodsi4+0x1c>
   44aa8:	10001126 	beq	r2,zero,44af0 <udivmodsi4+0x5c>
   44aac:	28000516 	blt	r5,zero,44ac4 <udivmodsi4+0x30>
   44ab0:	294b883a 	add	r5,r5,r5
   44ab4:	10bfffc4 	addi	r2,r2,-1
   44ab8:	18c7883a 	add	r3,r3,r3
   44abc:	293ffa36 	bltu	r5,r4,44aa8 <__alt_data_end+0xfffd2aa8>
   44ac0:	18000b26 	beq	r3,zero,44af0 <udivmodsi4+0x5c>
   44ac4:	0005883a 	mov	r2,zero
   44ac8:	21400236 	bltu	r4,r5,44ad4 <udivmodsi4+0x40>
   44acc:	2149c83a 	sub	r4,r4,r5
   44ad0:	10c4b03a 	or	r2,r2,r3
   44ad4:	1806d07a 	srli	r3,r3,1
   44ad8:	280ad07a 	srli	r5,r5,1
   44adc:	183ffa1e 	bne	r3,zero,44ac8 <__alt_data_end+0xfffd2ac8>
   44ae0:	3000011e 	bne	r6,zero,44ae8 <udivmodsi4+0x54>
   44ae4:	f800283a 	ret
   44ae8:	2005883a 	mov	r2,r4
   44aec:	f800283a 	ret
   44af0:	0005883a 	mov	r2,zero
   44af4:	003ffa06 	br	44ae0 <__alt_data_end+0xfffd2ae0>
   44af8:	00c00044 	movi	r3,1
   44afc:	003ff106 	br	44ac4 <__alt_data_end+0xfffd2ac4>

00044b00 <__divsi3>:
   44b00:	defffe04 	addi	sp,sp,-8
   44b04:	dfc00115 	stw	ra,4(sp)
   44b08:	dc000015 	stw	r16,0(sp)
   44b0c:	20000b16 	blt	r4,zero,44b3c <__divsi3+0x3c>
   44b10:	0021883a 	mov	r16,zero
   44b14:	28000c16 	blt	r5,zero,44b48 <__divsi3+0x48>
   44b18:	000d883a 	mov	r6,zero
   44b1c:	0044a940 	call	44a94 <udivmodsi4>
   44b20:	0407c83a 	sub	r3,zero,r16
   44b24:	1884f03a 	xor	r2,r3,r2
   44b28:	1405883a 	add	r2,r2,r16
   44b2c:	dfc00117 	ldw	ra,4(sp)
   44b30:	dc000017 	ldw	r16,0(sp)
   44b34:	dec00204 	addi	sp,sp,8
   44b38:	f800283a 	ret
   44b3c:	0109c83a 	sub	r4,zero,r4
   44b40:	04000044 	movi	r16,1
   44b44:	283ff40e 	bge	r5,zero,44b18 <__alt_data_end+0xfffd2b18>
   44b48:	014bc83a 	sub	r5,zero,r5
   44b4c:	8400005c 	xori	r16,r16,1
   44b50:	003ff106 	br	44b18 <__alt_data_end+0xfffd2b18>

00044b54 <__modsi3>:
   44b54:	defffd04 	addi	sp,sp,-12
   44b58:	dfc00215 	stw	ra,8(sp)
   44b5c:	dc400115 	stw	r17,4(sp)
   44b60:	dc000015 	stw	r16,0(sp)
   44b64:	20000c16 	blt	r4,zero,44b98 <__modsi3+0x44>
   44b68:	0023883a 	mov	r17,zero
   44b6c:	0021883a 	mov	r16,zero
   44b70:	28000d16 	blt	r5,zero,44ba8 <__modsi3+0x54>
   44b74:	01800044 	movi	r6,1
   44b78:	0044a940 	call	44a94 <udivmodsi4>
   44b7c:	1404f03a 	xor	r2,r2,r16
   44b80:	8885883a 	add	r2,r17,r2
   44b84:	dfc00217 	ldw	ra,8(sp)
   44b88:	dc400117 	ldw	r17,4(sp)
   44b8c:	dc000017 	ldw	r16,0(sp)
   44b90:	dec00304 	addi	sp,sp,12
   44b94:	f800283a 	ret
   44b98:	0109c83a 	sub	r4,zero,r4
   44b9c:	04400044 	movi	r17,1
   44ba0:	043fffc4 	movi	r16,-1
   44ba4:	283ff30e 	bge	r5,zero,44b74 <__alt_data_end+0xfffd2b74>
   44ba8:	014bc83a 	sub	r5,zero,r5
   44bac:	003ff106 	br	44b74 <__alt_data_end+0xfffd2b74>

00044bb0 <__udivsi3>:
   44bb0:	000d883a 	mov	r6,zero
   44bb4:	0044a941 	jmpi	44a94 <udivmodsi4>

00044bb8 <__umodsi3>:
   44bb8:	01800044 	movi	r6,1
   44bbc:	0044a941 	jmpi	44a94 <udivmodsi4>

00044bc0 <__addsf3>:
   44bc0:	defffc04 	addi	sp,sp,-16
   44bc4:	2004d7fa 	srli	r2,r4,31
   44bc8:	280ed5fa 	srli	r7,r5,23
   44bcc:	dc000015 	stw	r16,0(sp)
   44bd0:	01802034 	movhi	r6,128
   44bd4:	2020d5fa 	srli	r16,r4,23
   44bd8:	31bfffc4 	addi	r6,r6,-1
   44bdc:	2810d7fa 	srli	r8,r5,31
   44be0:	3108703a 	and	r4,r6,r4
   44be4:	dc800215 	stw	r18,8(sp)
   44be8:	314c703a 	and	r6,r6,r5
   44bec:	84003fcc 	andi	r16,r16,255
   44bf0:	200690fa 	slli	r3,r4,3
   44bf4:	dfc00315 	stw	ra,12(sp)
   44bf8:	39003fcc 	andi	r4,r7,255
   44bfc:	dc400115 	stw	r17,4(sp)
   44c00:	14803fcc 	andi	r18,r2,255
   44c04:	300c90fa 	slli	r6,r6,3
   44c08:	810bc83a 	sub	r5,r16,r4
   44c0c:	92004826 	beq	r18,r8,44d30 <__addsf3+0x170>
   44c10:	01406c0e 	bge	zero,r5,44dc4 <__addsf3+0x204>
   44c14:	20001e1e 	bne	r4,zero,44c90 <__addsf3+0xd0>
   44c18:	3000611e 	bne	r6,zero,44da0 <__addsf3+0x1e0>
   44c1c:	188001cc 	andi	r2,r3,7
   44c20:	10000426 	beq	r2,zero,44c34 <__addsf3+0x74>
   44c24:	190003cc 	andi	r4,r3,15
   44c28:	00800104 	movi	r2,4
   44c2c:	20800126 	beq	r4,r2,44c34 <__addsf3+0x74>
   44c30:	18c00104 	addi	r3,r3,4
   44c34:	1901002c 	andhi	r4,r3,1024
   44c38:	9005883a 	mov	r2,r18
   44c3c:	20003426 	beq	r4,zero,44d10 <__addsf3+0x150>
   44c40:	81400044 	addi	r5,r16,1
   44c44:	01003fc4 	movi	r4,255
   44c48:	29006926 	beq	r5,r4,44df0 <__addsf3+0x230>
   44c4c:	180691ba 	slli	r3,r3,6
   44c50:	1808d27a 	srli	r4,r3,9
   44c54:	29403fcc 	andi	r5,r5,255
   44c58:	280a95fa 	slli	r5,r5,23
   44c5c:	10803fcc 	andi	r2,r2,255
   44c60:	00c02034 	movhi	r3,128
   44c64:	100497fa 	slli	r2,r2,31
   44c68:	18ffffc4 	addi	r3,r3,-1
   44c6c:	20c6703a 	and	r3,r4,r3
   44c70:	1946b03a 	or	r3,r3,r5
   44c74:	1884b03a 	or	r2,r3,r2
   44c78:	dfc00317 	ldw	ra,12(sp)
   44c7c:	dc800217 	ldw	r18,8(sp)
   44c80:	dc400117 	ldw	r17,4(sp)
   44c84:	dc000017 	ldw	r16,0(sp)
   44c88:	dec00404 	addi	sp,sp,16
   44c8c:	f800283a 	ret
   44c90:	00803fc4 	movi	r2,255
   44c94:	80bfe126 	beq	r16,r2,44c1c <__alt_data_end+0xfffd2c1c>
   44c98:	31810034 	orhi	r6,r6,1024
   44c9c:	008006c4 	movi	r2,27
   44ca0:	11405b0e 	bge	r2,r5,44e10 <__addsf3+0x250>
   44ca4:	01400044 	movi	r5,1
   44ca8:	1947c83a 	sub	r3,r3,r5
   44cac:	1881002c 	andhi	r2,r3,1024
   44cb0:	10001426 	beq	r2,zero,44d04 <__addsf3+0x144>
   44cb4:	04410034 	movhi	r17,1024
   44cb8:	8c7fffc4 	addi	r17,r17,-1
   44cbc:	1c62703a 	and	r17,r3,r17
   44cc0:	8809883a 	mov	r4,r17
   44cc4:	0047f600 	call	47f60 <__clzsi2>
   44cc8:	10bffec4 	addi	r2,r2,-5
   44ccc:	88a2983a 	sll	r17,r17,r2
   44cd0:	14004a16 	blt	r2,r16,44dfc <__addsf3+0x23c>
   44cd4:	140bc83a 	sub	r5,r2,r16
   44cd8:	00c007c4 	movi	r3,31
   44cdc:	1947c83a 	sub	r3,r3,r5
   44ce0:	88c6983a 	sll	r3,r17,r3
   44ce4:	29400044 	addi	r5,r5,1
   44ce8:	8962d83a 	srl	r17,r17,r5
   44cec:	1806c03a 	cmpne	r3,r3,zero
   44cf0:	0021883a 	mov	r16,zero
   44cf4:	1c46b03a 	or	r3,r3,r17
   44cf8:	003fc806 	br	44c1c <__alt_data_end+0xfffd2c1c>
   44cfc:	1000e526 	beq	r2,zero,45094 <__addsf3+0x4d4>
   44d00:	1007883a 	mov	r3,r2
   44d04:	188001cc 	andi	r2,r3,7
   44d08:	103fc61e 	bne	r2,zero,44c24 <__alt_data_end+0xfffd2c24>
   44d0c:	9005883a 	mov	r2,r18
   44d10:	01003fc4 	movi	r4,255
   44d14:	1806d0fa 	srli	r3,r3,3
   44d18:	81001a26 	beq	r16,r4,44d84 <__addsf3+0x1c4>
   44d1c:	01002034 	movhi	r4,128
   44d20:	213fffc4 	addi	r4,r4,-1
   44d24:	800b883a 	mov	r5,r16
   44d28:	1908703a 	and	r4,r3,r4
   44d2c:	003fc906 	br	44c54 <__alt_data_end+0xfffd2c54>
   44d30:	01403e0e 	bge	zero,r5,44e2c <__addsf3+0x26c>
   44d34:	20001e26 	beq	r4,zero,44db0 <__addsf3+0x1f0>
   44d38:	01003fc4 	movi	r4,255
   44d3c:	813fb726 	beq	r16,r4,44c1c <__alt_data_end+0xfffd2c1c>
   44d40:	31810034 	orhi	r6,r6,1024
   44d44:	010006c4 	movi	r4,27
   44d48:	2140570e 	bge	r4,r5,44ea8 <__addsf3+0x2e8>
   44d4c:	01400044 	movi	r5,1
   44d50:	1947883a 	add	r3,r3,r5
   44d54:	1901002c 	andhi	r4,r3,1024
   44d58:	203fea26 	beq	r4,zero,44d04 <__alt_data_end+0xfffd2d04>
   44d5c:	84000044 	addi	r16,r16,1
   44d60:	01003fc4 	movi	r4,255
   44d64:	81007526 	beq	r16,r4,44f3c <__addsf3+0x37c>
   44d68:	00bf0034 	movhi	r2,64512
   44d6c:	10bfffc4 	addi	r2,r2,-1
   44d70:	1900004c 	andi	r4,r3,1
   44d74:	1886703a 	and	r3,r3,r2
   44d78:	1806d07a 	srli	r3,r3,1
   44d7c:	1906b03a 	or	r3,r3,r4
   44d80:	003fa606 	br	44c1c <__alt_data_end+0xfffd2c1c>
   44d84:	18001a26 	beq	r3,zero,44df0 <__addsf3+0x230>
   44d88:	19001034 	orhi	r4,r3,64
   44d8c:	00c02034 	movhi	r3,128
   44d90:	18ffffc4 	addi	r3,r3,-1
   44d94:	017fffc4 	movi	r5,-1
   44d98:	20c8703a 	and	r4,r4,r3
   44d9c:	003fad06 	br	44c54 <__alt_data_end+0xfffd2c54>
   44da0:	297fffc4 	addi	r5,r5,-1
   44da4:	28002c1e 	bne	r5,zero,44e58 <__addsf3+0x298>
   44da8:	1987c83a 	sub	r3,r3,r6
   44dac:	003fbf06 	br	44cac <__alt_data_end+0xfffd2cac>
   44db0:	303f9a26 	beq	r6,zero,44c1c <__alt_data_end+0xfffd2c1c>
   44db4:	297fffc4 	addi	r5,r5,-1
   44db8:	28004b1e 	bne	r5,zero,44ee8 <__addsf3+0x328>
   44dbc:	1987883a 	add	r3,r3,r6
   44dc0:	003fe406 	br	44d54 <__alt_data_end+0xfffd2d54>
   44dc4:	2800271e 	bne	r5,zero,44e64 <__addsf3+0x2a4>
   44dc8:	80800044 	addi	r2,r16,1
   44dcc:	10803fcc 	andi	r2,r2,255
   44dd0:	01000044 	movi	r4,1
   44dd4:	2080520e 	bge	r4,r2,44f20 <__addsf3+0x360>
   44dd8:	19a3c83a 	sub	r17,r3,r6
   44ddc:	8881002c 	andhi	r2,r17,1024
   44de0:	10002c26 	beq	r2,zero,44e94 <__addsf3+0x2d4>
   44de4:	30e3c83a 	sub	r17,r6,r3
   44de8:	4025883a 	mov	r18,r8
   44dec:	003fb406 	br	44cc0 <__alt_data_end+0xfffd2cc0>
   44df0:	017fffc4 	movi	r5,-1
   44df4:	0009883a 	mov	r4,zero
   44df8:	003f9606 	br	44c54 <__alt_data_end+0xfffd2c54>
   44dfc:	00ff0034 	movhi	r3,64512
   44e00:	18ffffc4 	addi	r3,r3,-1
   44e04:	80a1c83a 	sub	r16,r16,r2
   44e08:	88c6703a 	and	r3,r17,r3
   44e0c:	003f8306 	br	44c1c <__alt_data_end+0xfffd2c1c>
   44e10:	00800804 	movi	r2,32
   44e14:	1145c83a 	sub	r2,r2,r5
   44e18:	3084983a 	sll	r2,r6,r2
   44e1c:	314cd83a 	srl	r6,r6,r5
   44e20:	100ac03a 	cmpne	r5,r2,zero
   44e24:	298ab03a 	or	r5,r5,r6
   44e28:	003f9f06 	br	44ca8 <__alt_data_end+0xfffd2ca8>
   44e2c:	2800451e 	bne	r5,zero,44f44 <__addsf3+0x384>
   44e30:	81000044 	addi	r4,r16,1
   44e34:	21c03fcc 	andi	r7,r4,255
   44e38:	01400044 	movi	r5,1
   44e3c:	29c02d0e 	bge	r5,r7,44ef4 <__addsf3+0x334>
   44e40:	01403fc4 	movi	r5,255
   44e44:	21403c26 	beq	r4,r5,44f38 <__addsf3+0x378>
   44e48:	30c7883a 	add	r3,r6,r3
   44e4c:	1806d07a 	srli	r3,r3,1
   44e50:	2021883a 	mov	r16,r4
   44e54:	003f7106 	br	44c1c <__alt_data_end+0xfffd2c1c>
   44e58:	00803fc4 	movi	r2,255
   44e5c:	80bf8f1e 	bne	r16,r2,44c9c <__alt_data_end+0xfffd2c9c>
   44e60:	003f6e06 	br	44c1c <__alt_data_end+0xfffd2c1c>
   44e64:	80001726 	beq	r16,zero,44ec4 <__addsf3+0x304>
   44e68:	00803fc4 	movi	r2,255
   44e6c:	20801a26 	beq	r4,r2,44ed8 <__addsf3+0x318>
   44e70:	014bc83a 	sub	r5,zero,r5
   44e74:	18c10034 	orhi	r3,r3,1024
   44e78:	008006c4 	movi	r2,27
   44e7c:	1140430e 	bge	r2,r5,44f8c <__addsf3+0x3cc>
   44e80:	00c00044 	movi	r3,1
   44e84:	30c7c83a 	sub	r3,r6,r3
   44e88:	2021883a 	mov	r16,r4
   44e8c:	4025883a 	mov	r18,r8
   44e90:	003f8606 	br	44cac <__alt_data_end+0xfffd2cac>
   44e94:	883f8a1e 	bne	r17,zero,44cc0 <__alt_data_end+0xfffd2cc0>
   44e98:	0007883a 	mov	r3,zero
   44e9c:	0005883a 	mov	r2,zero
   44ea0:	0021883a 	mov	r16,zero
   44ea4:	003f9a06 	br	44d10 <__alt_data_end+0xfffd2d10>
   44ea8:	01000804 	movi	r4,32
   44eac:	2149c83a 	sub	r4,r4,r5
   44eb0:	3108983a 	sll	r4,r6,r4
   44eb4:	314cd83a 	srl	r6,r6,r5
   44eb8:	200ac03a 	cmpne	r5,r4,zero
   44ebc:	298ab03a 	or	r5,r5,r6
   44ec0:	003fa306 	br	44d50 <__alt_data_end+0xfffd2d50>
   44ec4:	18000426 	beq	r3,zero,44ed8 <__addsf3+0x318>
   44ec8:	014a303a 	nor	r5,zero,r5
   44ecc:	283fed26 	beq	r5,zero,44e84 <__alt_data_end+0xfffd2e84>
   44ed0:	00803fc4 	movi	r2,255
   44ed4:	20bfe81e 	bne	r4,r2,44e78 <__alt_data_end+0xfffd2e78>
   44ed8:	3007883a 	mov	r3,r6
   44edc:	2021883a 	mov	r16,r4
   44ee0:	4025883a 	mov	r18,r8
   44ee4:	003f4d06 	br	44c1c <__alt_data_end+0xfffd2c1c>
   44ee8:	01003fc4 	movi	r4,255
   44eec:	813f951e 	bne	r16,r4,44d44 <__alt_data_end+0xfffd2d44>
   44ef0:	003f4a06 	br	44c1c <__alt_data_end+0xfffd2c1c>
   44ef4:	8000471e 	bne	r16,zero,45014 <__addsf3+0x454>
   44ef8:	18006126 	beq	r3,zero,45080 <__addsf3+0x4c0>
   44efc:	303f4726 	beq	r6,zero,44c1c <__alt_data_end+0xfffd2c1c>
   44f00:	1987883a 	add	r3,r3,r6
   44f04:	1881002c 	andhi	r2,r3,1024
   44f08:	103f7e26 	beq	r2,zero,44d04 <__alt_data_end+0xfffd2d04>
   44f0c:	00bf0034 	movhi	r2,64512
   44f10:	10bfffc4 	addi	r2,r2,-1
   44f14:	2821883a 	mov	r16,r5
   44f18:	1886703a 	and	r3,r3,r2
   44f1c:	003f3f06 	br	44c1c <__alt_data_end+0xfffd2c1c>
   44f20:	8000141e 	bne	r16,zero,44f74 <__addsf3+0x3b4>
   44f24:	1800311e 	bne	r3,zero,44fec <__addsf3+0x42c>
   44f28:	30004626 	beq	r6,zero,45044 <__addsf3+0x484>
   44f2c:	3007883a 	mov	r3,r6
   44f30:	4025883a 	mov	r18,r8
   44f34:	003f3906 	br	44c1c <__alt_data_end+0xfffd2c1c>
   44f38:	2021883a 	mov	r16,r4
   44f3c:	0007883a 	mov	r3,zero
   44f40:	003f7306 	br	44d10 <__alt_data_end+0xfffd2d10>
   44f44:	8000181e 	bne	r16,zero,44fa8 <__addsf3+0x3e8>
   44f48:	18002f26 	beq	r3,zero,45008 <__addsf3+0x448>
   44f4c:	014a303a 	nor	r5,zero,r5
   44f50:	28000526 	beq	r5,zero,44f68 <__addsf3+0x3a8>
   44f54:	01c03fc4 	movi	r7,255
   44f58:	21c02b26 	beq	r4,r7,45008 <__addsf3+0x448>
   44f5c:	01c006c4 	movi	r7,27
   44f60:	3940400e 	bge	r7,r5,45064 <__addsf3+0x4a4>
   44f64:	00c00044 	movi	r3,1
   44f68:	1987883a 	add	r3,r3,r6
   44f6c:	2021883a 	mov	r16,r4
   44f70:	003f7806 	br	44d54 <__alt_data_end+0xfffd2d54>
   44f74:	1800111e 	bne	r3,zero,44fbc <__addsf3+0x3fc>
   44f78:	30003526 	beq	r6,zero,45050 <__addsf3+0x490>
   44f7c:	3007883a 	mov	r3,r6
   44f80:	4025883a 	mov	r18,r8
   44f84:	04003fc4 	movi	r16,255
   44f88:	003f2406 	br	44c1c <__alt_data_end+0xfffd2c1c>
   44f8c:	00800804 	movi	r2,32
   44f90:	1145c83a 	sub	r2,r2,r5
   44f94:	1884983a 	sll	r2,r3,r2
   44f98:	194ad83a 	srl	r5,r3,r5
   44f9c:	1006c03a 	cmpne	r3,r2,zero
   44fa0:	1946b03a 	or	r3,r3,r5
   44fa4:	003fb706 	br	44e84 <__alt_data_end+0xfffd2e84>
   44fa8:	01c03fc4 	movi	r7,255
   44fac:	21c01626 	beq	r4,r7,45008 <__addsf3+0x448>
   44fb0:	014bc83a 	sub	r5,zero,r5
   44fb4:	18c10034 	orhi	r3,r3,1024
   44fb8:	003fe806 	br	44f5c <__alt_data_end+0xfffd2f5c>
   44fbc:	30001f26 	beq	r6,zero,4503c <__addsf3+0x47c>
   44fc0:	1806d0fa 	srli	r3,r3,3
   44fc4:	1880102c 	andhi	r2,r3,64
   44fc8:	10000526 	beq	r2,zero,44fe0 <__addsf3+0x420>
   44fcc:	300cd0fa 	srli	r6,r6,3
   44fd0:	3080102c 	andhi	r2,r6,64
   44fd4:	1000021e 	bne	r2,zero,44fe0 <__addsf3+0x420>
   44fd8:	3007883a 	mov	r3,r6
   44fdc:	4025883a 	mov	r18,r8
   44fe0:	180690fa 	slli	r3,r3,3
   44fe4:	04003fc4 	movi	r16,255
   44fe8:	003f0c06 	br	44c1c <__alt_data_end+0xfffd2c1c>
   44fec:	303f0b26 	beq	r6,zero,44c1c <__alt_data_end+0xfffd2c1c>
   44ff0:	1985c83a 	sub	r2,r3,r6
   44ff4:	1101002c 	andhi	r4,r2,1024
   44ff8:	203f4026 	beq	r4,zero,44cfc <__alt_data_end+0xfffd2cfc>
   44ffc:	30c7c83a 	sub	r3,r6,r3
   45000:	4025883a 	mov	r18,r8
   45004:	003f0506 	br	44c1c <__alt_data_end+0xfffd2c1c>
   45008:	3007883a 	mov	r3,r6
   4500c:	2021883a 	mov	r16,r4
   45010:	003f0206 	br	44c1c <__alt_data_end+0xfffd2c1c>
   45014:	18001c26 	beq	r3,zero,45088 <__addsf3+0x4c8>
   45018:	30000826 	beq	r6,zero,4503c <__addsf3+0x47c>
   4501c:	1806d0fa 	srli	r3,r3,3
   45020:	1880102c 	andhi	r2,r3,64
   45024:	103fee26 	beq	r2,zero,44fe0 <__alt_data_end+0xfffd2fe0>
   45028:	300cd0fa 	srli	r6,r6,3
   4502c:	3080102c 	andhi	r2,r6,64
   45030:	103feb1e 	bne	r2,zero,44fe0 <__alt_data_end+0xfffd2fe0>
   45034:	3007883a 	mov	r3,r6
   45038:	003fe906 	br	44fe0 <__alt_data_end+0xfffd2fe0>
   4503c:	04003fc4 	movi	r16,255
   45040:	003ef606 	br	44c1c <__alt_data_end+0xfffd2c1c>
   45044:	8007883a 	mov	r3,r16
   45048:	0005883a 	mov	r2,zero
   4504c:	003f3006 	br	44d10 <__alt_data_end+0xfffd2d10>
   45050:	00c10034 	movhi	r3,1024
   45054:	0005883a 	mov	r2,zero
   45058:	18fffe04 	addi	r3,r3,-8
   4505c:	04003fc4 	movi	r16,255
   45060:	003f2b06 	br	44d10 <__alt_data_end+0xfffd2d10>
   45064:	01c00804 	movi	r7,32
   45068:	394fc83a 	sub	r7,r7,r5
   4506c:	19ce983a 	sll	r7,r3,r7
   45070:	194ad83a 	srl	r5,r3,r5
   45074:	3806c03a 	cmpne	r3,r7,zero
   45078:	1946b03a 	or	r3,r3,r5
   4507c:	003fba06 	br	44f68 <__alt_data_end+0xfffd2f68>
   45080:	3007883a 	mov	r3,r6
   45084:	003ee506 	br	44c1c <__alt_data_end+0xfffd2c1c>
   45088:	3007883a 	mov	r3,r6
   4508c:	04003fc4 	movi	r16,255
   45090:	003ee206 	br	44c1c <__alt_data_end+0xfffd2c1c>
   45094:	0007883a 	mov	r3,zero
   45098:	0005883a 	mov	r2,zero
   4509c:	003f1c06 	br	44d10 <__alt_data_end+0xfffd2d10>

000450a0 <__mulsf3>:
   450a0:	defff504 	addi	sp,sp,-44
   450a4:	dc400215 	stw	r17,8(sp)
   450a8:	2022d5fa 	srli	r17,r4,23
   450ac:	dd400615 	stw	r21,24(sp)
   450b0:	202ad7fa 	srli	r21,r4,31
   450b4:	dc000115 	stw	r16,4(sp)
   450b8:	04002034 	movhi	r16,128
   450bc:	df000915 	stw	fp,36(sp)
   450c0:	dd000515 	stw	r20,20(sp)
   450c4:	843fffc4 	addi	r16,r16,-1
   450c8:	dfc00a15 	stw	ra,40(sp)
   450cc:	ddc00815 	stw	r23,32(sp)
   450d0:	dd800715 	stw	r22,28(sp)
   450d4:	dcc00415 	stw	r19,16(sp)
   450d8:	dc800315 	stw	r18,12(sp)
   450dc:	8c403fcc 	andi	r17,r17,255
   450e0:	8120703a 	and	r16,r16,r4
   450e4:	a829883a 	mov	r20,r21
   450e8:	af003fcc 	andi	fp,r21,255
